(dp1
S'output'
p2
S"<class 'sqlite3.OperationalError'> no such column: auth_user.User_Type"
p3
sS'layer'
p4
S'/Users/LC-3/Documents/CMPS183/Project/web2py/applications/EasyCommerce/controllers/default.py'
p5
sS'code'
p6
S'# -*- coding: utf-8 -*-\n# this file is released under public domain and you can use without limitations\n\n# -------------------------------------------------------------------------\n# This is a sample controller\n# - index is the default action of any application\n# - user is required for authentication and authorization\n# - download is for downloading files uploaded in the db (does streaming)\n# -------------------------------------------------------------------------\ndef index():\n    # grid = SQLFORM.smartgrid(db.invoice)\n    # return dict(grid = grid)\n    form = SQLFORM(db.auth_user)\n    if form.process().accepted:\n        response.flash = \'your login is accepted\'\n\n    return dict()\n\n@auth.requires_login()\ndef customer_orders():\n    if request.vars[\'status\'] and request.vars[\'status\']!="all":\n        invoices = db((db.invoice.seller_id == auth.user_id) & (db.invoice.status == request.vars[\'status\'])).select(\n            orderby=db.invoice.date)\n        print ("hello" + request.vars[\'status\'])\n    else:\n        invoices = db(db.invoice.seller_id == auth.user_id).select(orderby=db.invoice.date)\n        print ("no status")\n    return dict(invoices=invoices)\n\n\n\n\n#Allow vendor to see page only when sing in.\n#@auth.requires_login()\n\n\n\n\ndef give_create_permission(form):\n    group_id = auth.id_group(\'Vendors\')\n    auth.add_permission(group_id)\n\nauth.settings.register_onaccept = give_create_permission\n\n#@auth.requires_membership(\'Buyers\')\ndef buyer():\n    grid = SQLFORM.smartgrid(db.vendor_)\n    return dict(grid=grid)\n\n#@auth.requires_membership(\'Vendors\')\ndef vendor():\n    grid = SQLFORM.smartgrid(db.invoice)\n    return  dict(grid = grid)\n\n@auth.requires_login()\ndef manager():\n    invoices = db(db.invoice.seller_id == auth.user_id).select(orderby=db.invoice.date)\n    return dict(invoices=invoices)\n\n\n\n@auth.requires_login()\ndef status_update():\n    if request.vars[\'status\']:\n        return\n    invoice = db.invoice[request.vars[\'order_id\']]\n    if invoice.status == \'pending\':\n        invoice.update_record(status = "confirmed")\n    else:\n        invoice.update_record(status = "pending")\n    return invoice.status\n\n\n\ndef card():\n    fields = [\'first_name\',  \'last_name\', \'card_number\',\'security_code\', \'exp_date\']\n    form = SQLFORM(db.cc, fields=fields)\n    if form.process().accepted:\n        response.flash = \'Your credit card is confirmed\'\n\n    else:\n        response.flash = \'please fill out your credit card information\'\n      # redirect(URL("index"))\n    return dict(form=form)\n\ndef choose_type():\n    return dict()\n\ndef input_info():\n    return dict()\n\n\n\ndef vendor_info():\n    form = SQLFORM(db.vendor_)\n    if form.accepts(request.vars, session):\n        response.flash = T(\'new record inserted\')\n        #add_member(vendor_group_id, user_id)  # defined buyer_group_id and user_id at bottom of db.py\n        redirect(URL(\'vendor\'))\n    #else:\n    #   response.flash = T(\'new record failed\')\n    return dict(form=form)\n\ndef buyer_info():\n    form = SQLFORM(db.user_)\n    if form.accepts(request.vars, session):\n        response.flash = T(\'new record inserted\')\n        #auth.add_membership(buyer_group_id, user_id) # defined buyer_group_id and user_id at bottom of db.py\n        #auth.settings.register_onaccept = add_buyer(buyer_group_id, user_id)\n        #add_member(buyer_group_id, user_id)\n        redirect(URL(\'buyer\'))\n        #add_buyer(buyer_group_id, user_id)\n    #else:\n    #    response.flash = T(\'new record failed\')\n    return dict(form=form)\n\n"""def __add_user_membership(form):\n    #group = db(db.auth_group.role == form.vars.User_Type).select().first()\n    #group = vendor_group_id\n    #user_id = form.vars.id\n    #auth.add_membership(group, user_id)\n    group_id = form.vars.group_name\n    user_id = form.vars.id\n    auth.add_membership(group_id, user_id)\n"""\ndef user():\n    """\n    exposes:\n    http://..../[app]/default/user/login\n    http://..../[app]/default/user/logout\n    http://..../[app]/default/user/register\n    http://..../[app]/default/user/profile\n    http://..../[app]/default/user/retrieve_password\n    http://..../[app]/default/user/change_password\n    http://..../[app]/default/user/bulk_register\n    use @auth.requires_login()\n        @auth.requires_membership(\'group name\')\n        @auth.requires_permission(\'read\',\'table name\',record_id)\n    to decorate functions that need access control\n    also notice there is http://..../[app]/appadmin/manage_page.html/auth to allow administrator to manage_page.html users\n    """\n\n    #auth.settings.register_onaccept = add_membership(user_id)\n    #auth.settings.register_onaccept = __add_user_membership\n    # already existing code\n    return dict(form=auth())\n\n\n@cache.action()\ndef download():\n    """\n    allows downloading of uploaded files\n    http://..../[app]/default/download/[filename]\n    """\n    return response.download(request, db)\n\n\n\n\nresponse._vars=response._caller(user)\n'
p7
sS'snapshot'
p8
(dp9
S'exception'
p10
(dp11
S'__module__'
p12
S"'sqlite3'"
p13
sS'__getslice__'
p14
S"<method-wrapper '__getslice__' of OperationalError object>"
p15
sS'__str__'
p16
S"<method-wrapper '__str__' of OperationalError object>"
p17
sS'__reduce__'
p18
S'<built-in method __reduce__ of OperationalError object>'
p19
sS'__dict__'
p20
S'{}'
p21
sS'__sizeof__'
p22
S'<built-in method __sizeof__ of OperationalError object>'
p23
sS'__weakref__'
p24
S'None'
p25
sS'__init__'
p26
S"<method-wrapper '__init__' of OperationalError object>"
p27
sS'__setattr__'
p28
S"<method-wrapper '__setattr__' of OperationalError object>"
p29
sS'__reduce_ex__'
p30
S'<built-in method __reduce_ex__ of OperationalError object>'
p31
sS'__new__'
p32
S'<built-in method __new__ of type object>'
p33
sS'__format__'
p34
S'<built-in method __format__ of OperationalError object>'
p35
sS'__class__'
p36
S"<class 'sqlite3.OperationalError'>"
p37
sS'__doc__'
p38
S'None'
p39
sS'__getitem__'
p40
S"<method-wrapper '__getitem__' of OperationalError object>"
p41
sS'__setstate__'
p42
S'<built-in method __setstate__ of OperationalError object>'
p43
sS'__getattribute__'
p44
S"<method-wrapper '__getattribute__' of OperationalError object>"
p45
sS'args'
p46
S"('no such column: auth_user.User_Type',)"
p47
sS'__subclasshook__'
p48
S'<built-in method __subclasshook__ of type object>'
p49
sS'__unicode__'
p50
S'<built-in method __unicode__ of OperationalError object>'
p51
sS'__delattr__'
p52
S"<method-wrapper '__delattr__' of OperationalError object>"
p53
sS'__repr__'
p54
S"<method-wrapper '__repr__' of OperationalError object>"
p55
sS'__hash__'
p56
S"<method-wrapper '__hash__' of OperationalError object>"
p57
ssS'evalue'
p58
S'no such column: auth_user.User_Type'
p59
sS'request'
p60
cgluon.html
XML_unpickle
p61
(S's\xfde\x00\x00<div><table><tr><td style="font-weight:bold;vertical-align:top;">ajax</td><td style="vertical-align:top;">:</td><td><div>False</div></td></tr><tr><td style="font-weight:bold;vertical-align:top;">application</td><td style="vertical-align:top;">:</td><td><div>EasyCommerce</div></td></tr><tr><td style="font-weight:bold;vertical-align:top;">args</td><td style="vertical-align:top;">:</td><td><div><table><tr><td><div>login</div></td></tr></table></div></td></tr><tr><td style="font-weight:bold;vertical-align:top;">cid</td><td style="vertical-align:top;">:</td><td><div>None</div></td></tr><tr><td style="font-weight:bold;vertical-align:top;">client</td><td style="vertical-align:top;">:</td><td><div>127.0.0.1</div></td></tr><tr><td style="font-weight:bold;vertical-align:top;">controller</td><td style="vertical-align:top;">:</td><td><div>default</div></td></tr><tr><td style="font-weight:bold;vertical-align:top;">cookies</td><td style="vertical-align:top;">:</td><td><div><table><tr><td style="font-weight:bold;vertical-align:top;">session_id_admin</td><td style="vertical-align:top;">:</td><td><div>127.0.0.1-962fe2d3-e8d0-4d88-8cd9-e5aeffcdae56<table><tr><td style="font-weight:bold;vertical-align:top;">comment</td><td style="vertical-align:top;">:</td><td><div></div></td></tr><tr><td style="font-weight:bold;vertical-align:top;">domain</td><td style="vertical-align:top;">:</td><td><div></div></td></tr><tr><td style="font-weight:bold;vertical-align:top;">expires</td><td style="vertical-align:top;">:</td><td><div></div></td></tr><tr><td style="font-weight:bold;vertical-align:top;">httponly</td><td style="vertical-align:top;">:</td><td><div></div></td></tr><tr><td style="font-weight:bold;vertical-align:top;">max-age</td><td style="vertical-align:top;">:</td><td><div></div></td></tr><tr><td style="font-weight:bold;vertical-align:top;">path</td><td style="vertical-align:top;">:</td><td><div></div></td></tr><tr><td style="font-weight:bold;vertical-align:top;">secure</td><td style="vertical-align:top;">:</td><td><div></div></td></tr><tr><td style="font-weight:bold;vertical-align:top;">version</td><td style="vertical-align:top;">:</td><td><div></div></td></tr></table></div></td></tr><tr><td style="font-weight:bold;vertical-align:top;">session_id_easycommerce</td><td style="vertical-align:top;">:</td><td><div>127.0.0.1-ef5f595e-8fa5-4c9e-beb0-aacd9bbaeb1e<table><tr><td style="font-weight:bold;vertical-align:top;">comment</td><td style="vertical-align:top;">:</td><td><div></div></td></tr><tr><td style="font-weight:bold;vertical-align:top;">domain</td><td style="vertical-align:top;">:</td><td><div></div></td></tr><tr><td style="font-weight:bold;vertical-align:top;">expires</td><td style="vertical-align:top;">:</td><td><div></div></td></tr><tr><td style="font-weight:bold;vertical-align:top;">httponly</td><td style="vertical-align:top;">:</td><td><div></div></td></tr><tr><td style="font-weight:bold;vertical-align:top;">max-age</td><td style="vertical-align:top;">:</td><td><div></div></td></tr><tr><td style="font-weight:bold;vertical-align:top;">path</td><td style="vertical-align:top;">:</td><td><div></div></td></tr><tr><td style="font-weight:bold;vertical-align:top;">secure</td><td style="vertical-align:top;">:</td><td><div></div></td></tr><tr><td style="font-weight:bold;vertical-align:top;">version</td><td style="vertical-align:top;">:</td><td><div></div></td></tr></table></div></td></tr><tr><td style="font-weight:bold;vertical-align:top;">session_id_welcome</td><td style="vertical-align:top;">:</td><td><div>127.0.0.1-8383e714-3fc1-4e6f-b177-fa466a50e3b7<table><tr><td style="font-weight:bold;vertical-align:top;">comment</td><td style="vertical-align:top;">:</td><td><div></div></td></tr><tr><td style="font-weight:bold;vertical-align:top;">domain</td><td style="vertical-align:top;">:</td><td><div></div></td></tr><tr><td style="font-weight:bold;vertical-align:top;">expires</td><td style="vertical-align:top;">:</td><td><div></div></td></tr><tr><td style="font-weight:bold;vertical-align:top;">httponly</td><td style="vertical-align:top;">:</td><td><div></div></td></tr><tr><td style="font-weight:bold;vertical-align:top;">max-age</td><td style="vertical-align:top;">:</td><td><div></div></td></tr><tr><td style="font-weight:bold;vertical-align:top;">path</td><td style="vertical-align:top;">:</td><td><div></div></td></tr><tr><td style="font-weight:bold;vertical-align:top;">secure</td><td style="vertical-align:top;">:</td><td><div></div></td></tr><tr><td style="font-weight:bold;vertical-align:top;">version</td><td style="vertical-align:top;">:</td><td><div></div></td></tr></table></div></td></tr></table></div></td></tr><tr><td style="font-weight:bold;vertical-align:top;">env</td><td style="vertical-align:top;">:</td><td><div><table><tr><td style="font-weight:bold;vertical-align:top;">CONTENT_LENGTH</td><td style="vertical-align:top;">:</td><td><div>602</div></td></tr><tr><td style="font-weight:bold;vertical-align:top;">CONTENT_TYPE</td><td style="vertical-align:top;">:</td><td><div>multipart/form-data; boundary=----WebKitFormBoundaryABVwjBrXQLegncCc</div></td></tr><tr><td style="font-weight:bold;vertical-align:top;">HTTP_ACCEPT</td><td style="vertical-align:top;">:</td><td><div>text/html,application/xhtml+xml,application/xml;q=0.9,image/webp,*/*;q=0.8</div></td></tr><tr><td style="font-weight:bold;vertical-align:top;">HTTP_ACCEPT_ENCODING</td><td style="vertical-align:top;">:</td><td><div>gzip, deflate, br</div></td></tr><tr><td style="font-weight:bold;vertical-align:top;">HTTP_ACCEPT_LANGUAGE</td><td style="vertical-align:top;">:</td><td><div>en-US,en;q=0.8</div></td></tr><tr><td style="font-weight:bold;vertical-align:top;">HTTP_CACHE_CONTROL</td><td style="vertical-align:top;">:</td><td><div>max-age=0</div></td></tr><tr><td style="font-weight:bold;vertical-align:top;">HTTP_CONNECTION</td><td style="vertical-align:top;">:</td><td><div>keep-alive</div></td></tr><tr><td style="font-weight:bold;vertical-align:top;">HTTP_CONTENT_LENGTH</td><td style="vertical-align:top;">:</td><td><div>602</div></td></tr><tr><td style="font-weight:bold;vertical-align:top;">HTTP_CONTENT_TYPE</td><td style="vertical-align:top;">:</td><td><div>multipart/form-data; boundary=----WebKitFormBoundaryABVwjBrXQLegncCc</div></td></tr><tr><td style="font-weight:bold;vertical-align:top;">HTTP_COOKIE</td><td style="vertical-align:top;">:</td><td><div>session_id_welcome=127.0.0.1-8383e714-3fc1-4e6f-b177-fa466a50e3b7; session_id_admin=127.0.0.1-962fe2d3-e8d0-4d88-8cd9-e5aeffcdae56; session_id_easycommerce=127.0.0.1-ef5f595e-8fa5-4c9e-beb0-aacd9bbaeb1e</div></td></tr><tr><td style="font-weight:bold;vertical-align:top;">HTTP_HOST</td><td style="vertical-align:top;">:</td><td><div>127.0.0.1:8000</div></td></tr><tr><td style="font-weight:bold;vertical-align:top;">HTTP_ORIGIN</td><td style="vertical-align:top;">:</td><td><div>http://127.0.0.1:8000</div></td></tr><tr><td style="font-weight:bold;vertical-align:top;">HTTP_REFERER</td><td style="vertical-align:top;">:</td><td><div>http://127.0.0.1:8000/EasyCommerce/default/user/login?_next=/EasyCommerce/default/buyer/vendor_</div></td></tr><tr><td style="font-weight:bold;vertical-align:top;">HTTP_UPGRADE_INSECURE_REQUESTS</td><td style="vertical-align:top;">:</td><td><div>1</div></td></tr><tr><td style="font-weight:bold;vertical-align:top;">HTTP_USER_AGENT</td><td style="vertical-align:top;">:</td><td><div>Mozilla/5.0 (Macintosh; Intel Mac OS X 10_11_4) AppleWebKit/537.36 (KHTML, like Gecko) Chrome/56.0.2924.87 Safari/537.36</div></td></tr><tr><td style="font-weight:bold;vertical-align:top;">PATH_INFO</td><td style="vertical-align:top;">:</td><td><div>/EasyCommerce/default/user/login</div></td></tr><tr><td style="font-weight:bold;vertical-align:top;">QUERY_STRING</td><td style="vertical-align:top;">:</td><td><div>_next=/EasyCommerce/default/buyer/vendor_</div></td></tr><tr><td style="font-weight:bold;vertical-align:top;">REMOTE_ADDR</td><td style="vertical-align:top;">:</td><td><div>127.0.0.1</div></td></tr><tr><td style="font-weight:bold;vertical-align:top;">REMOTE_PORT</td><td style="vertical-align:top;">:</td><td><div>53729</div></td></tr><tr><td style="font-weight:bold;vertical-align:top;">REQUEST_METHOD</td><td style="vertical-align:top;">:</td><td><div>POST</div></td></tr><tr><td style="font-weight:bold;vertical-align:top;">SCRIPT_NAME</td><td style="vertical-align:top;">:</td><td><div></div></td></tr><tr><td style="font-weight:bold;vertical-align:top;">SERVER_NAME</td><td style="vertical-align:top;">:</td><td><div>eduroam-169-233-205-238.ucsc.edu</div></td></tr><tr><td style="font-weight:bold;vertical-align:top;">SERVER_PORT</td><td style="vertical-align:top;">:</td><td><div>8000</div></td></tr><tr><td style="font-weight:bold;vertical-align:top;">SERVER_PROTOCOL</td><td style="vertical-align:top;">:</td><td><div>HTTP/1.1</div></td></tr><tr><td style="font-weight:bold;vertical-align:top;">SERVER_SOFTWARE</td><td style="vertical-align:top;">:</td><td><div>Rocket 1.2.6</div></td></tr><tr><td style="font-weight:bold;vertical-align:top;">app_folders</td><td style="vertical-align:top;">:</td><td><div>set([&#x27;/Users/LC-3/Documents/CMPS183/Project/web2py/applications/welcome/&#x27;, &#x27;/Users/LC-3/Documents/CMPS183/Project/web2py/applications/EasyCommerce/&#x27;, &#x27;/Users/LC-3/Documents/CMPS183/Project/web2py/applications/admin/&#x27;])</div></td></tr><tr><td style="font-weight:bold;vertical-align:top;">applications_parent</td><td style="vertical-align:top;">:</td><td><div>/Users/LC-3/Documents/CMPS183/Project/web2py</div></td></tr><tr><td style="font-weight:bold;vertical-align:top;">cmd_args</td><td style="vertical-align:top;">:</td><td><div><table></table></div></td></tr><tr><td style="font-weight:bold;vertical-align:top;">cmd_options</td><td style="vertical-align:top;">:</td><td><div>&lt;Values at 0x1088b8998: {&#x27;verbose&#x27;: False, &#x27;ip&#x27;: &#x27;127.0.0.1&#x27;, &#x27;debuglevel&#x27;: 30, &#x27;with_scheduler&#x27;: False, &#x27;shutdown_timeout&#x27;: 5, &#x27;taskbar&#x27;: False, &#x27;with_coverage&#x27;: False, &#x27;pid_filename&#x27;: &#x27;httpserver.pid&#x27;, &#x27;maxthreads&#x27;: None, &#x27;softcron&#x27;: False, &#x27;server_name&#x27;: &#x27;eduroam-169-233-205-238.ucsc.edu&#x27;, &#x27;bpython&#x27;: False, &#x27;nogui&#x27;: False, &#x27;port&#x27;: 8000, &#x27;print_errors&#x27;: False, &#x27;extcron&#x27;: False, &#x27;runcron&#x27;: False, &#x27;run_system_tests&#x27;: False, &#x27;test&#x27;: None, &#x27;folder&#x27;: &#x27;/Users/LC-3/Documents/CMPS183/Project/web2py&#x27;, &#x27;config&#x27;: &#x27;&#x27;, &#x27;minthreads&#x27;: None, &#x27;shell&#x27;: None, &#x27;run&#x27;: &#x27;&#x27;, &#x27;log_filename&#x27;: &#x27;httpserver.log&#x27;, &#x27;profiler_dir&#x27;: None, &#x27;args&#x27;: [&#x27;&#x27;], &#x27;socket_timeout&#x27;: 5, &#x27;ssl_ca_certificate&#x27;: None, &#x27;scheduler&#x27;: None, &#x27;interfaces&#x27;: None, &#x27;ssl_private_key&#x27;: &#x27;&#x27;, &#x27;gae&#x27;: None, &#x27;password&#x27;: &#x27;******&#x27;, &#x27;request_queue_size&#x27;: 5, &#x27;ssl_certificate&#x27;: &#x27;&#x27;, &#x27;cronjob&#x27;: False, &#x27;numthreads&#x27;: None, &#x27;quiet&#x27;: False, &#x27;import_models&#x27;: False, &#x27;timeout&#x27;: 10, &#x27;plain&#x27;: False, &#x27;nobanner&#x27;: False}&gt;</div></td></tr><tr><td style="font-weight:bold;vertical-align:top;">content_length</td><td style="vertical-align:top;">:</td><td><div>602</div></td></tr><tr><td style="font-weight:bold;vertical-align:top;">content_type</td><td style="vertical-align:top;">:</td><td><div>multipart/form-data; boundary=----WebKitFormBoundaryABVwjBrXQLegncCc</div></td></tr><tr><td style="font-weight:bold;vertical-align:top;">db_sessions</td><td style="vertical-align:top;">:</td><td><div>set([])</div></td></tr><tr><td style="font-weight:bold;vertical-align:top;">debugging</td><td style="vertical-align:top;">:</td><td><div>True</div></td></tr><tr><td style="font-weight:bold;vertical-align:top;">gluon_parent</td><td style="vertical-align:top;">:</td><td><div>/Users/LC-3/Documents/CMPS183/Project/web2py</div></td></tr><tr><td style="font-weight:bold;vertical-align:top;">http_accept</td><td style="vertical-align:top;">:</td><td><div>text/html,application/xhtml+xml,application/xml;q=0.9,image/webp,*/*;q=0.8</div></td></tr><tr><td style="font-weight:bold;vertical-align:top;">http_accept_encoding</td><td style="vertical-align:top;">:</td><td><div>gzip, deflate, br</div></td></tr><tr><td style="font-weight:bold;vertical-align:top;">http_accept_language</td><td style="vertical-align:top;">:</td><td><div>en-US,en;q=0.8</div></td></tr><tr><td style="font-weight:bold;vertical-align:top;">http_cache_control</td><td style="vertical-align:top;">:</td><td><div>max-age=0</div></td></tr><tr><td style="font-weight:bold;vertical-align:top;">http_connection</td><td style="vertical-align:top;">:</td><td><div>keep-alive</div></td></tr><tr><td style="font-weight:bold;vertical-align:top;">http_content_length</td><td style="vertical-align:top;">:</td><td><div>602</div></td></tr><tr><td style="font-weight:bold;vertical-align:top;">http_content_type</td><td style="vertical-align:top;">:</td><td><div>multipart/form-data; boundary=----WebKitFormBoundaryABVwjBrXQLegncCc</div></td></tr><tr><td style="font-weight:bold;vertical-align:top;">http_cookie</td><td style="vertical-align:top;">:</td><td><div>session_id_welcome=127.0.0.1-8383e714-3fc1-4e6f-b177-fa466a50e3b7; session_id_admin=127.0.0.1-962fe2d3-e8d0-4d88-8cd9-e5aeffcdae56; session_id_easycommerce=127.0.0.1-ef5f595e-8fa5-4c9e-beb0-aacd9bbaeb1e</div></td></tr><tr><td style="font-weight:bold;vertical-align:top;">http_host</td><td style="vertical-align:top;">:</td><td><div>127.0.0.1:8000</div></td></tr><tr><td style="font-weight:bold;vertical-align:top;">http_origin</td><td style="vertical-align:top;">:</td><td><div>http://127.0.0.1:8000</div></td></tr><tr><td style="font-weight:bold;vertical-align:top;">http_referer</td><td style="vertical-align:top;">:</td><td><div>http://127.0.0.1:8000/EasyCommerce/default/user/login?_next=/EasyCommerce/default/buyer/vendor_</div></td></tr><tr><td style="font-weight:bold;vertical-align:top;">http_upgrade_insecure_requests</td><td style="vertical-align:top;">:</td><td><div>1</div></td></tr><tr><td style="font-weight:bold;vertical-align:top;">http_user_agent</td><td style="vertical-align:top;">:</td><td><div>Mozilla/5.0 (Macintosh; Intel Mac OS X 10_11_4) AppleWebKit/537.36 (KHTML, like Gecko) Chrome/56.0.2924.87 Safari/537.36</div></td></tr><tr><td style="font-weight:bold;vertical-align:top;">is_jython</td><td style="vertical-align:top;">:</td><td><div>False</div></td></tr><tr><td style="font-weight:bold;vertical-align:top;">is_pypy</td><td style="vertical-align:top;">:</td><td><div>False</div></td></tr><tr><td style="font-weight:bold;vertical-align:top;">is_source</td><td style="vertical-align:top;">:</td><td><div>True</div></td></tr><tr><td style="font-weight:bold;vertical-align:top;">local_hosts</td><td style="vertical-align:top;">:</td><td><div><table><tr><td><div>eduroam-169-233-205-238.ucsc.edu</div></td></tr><tr><td><div>::1</div></td></tr><tr><td><div>::ffff:127.0.0.1</div></td></tr><tr><td><div>127.0.0.1</div></td></tr><tr><td><div>169.233.205.238</div></td></tr></table></div></td></tr><tr><td style="font-weight:bold;vertical-align:top;">path_info</td><td style="vertical-align:top;">:</td><td><div>/EasyCommerce/default/user/login</div></td></tr><tr><td style="font-weight:bold;vertical-align:top;">query_string</td><td style="vertical-align:top;">:</td><td><div>_next=/EasyCommerce/default/buyer/vendor_</div></td></tr><tr><td style="font-weight:bold;vertical-align:top;">remote_addr</td><td style="vertical-align:top;">:</td><td><div>127.0.0.1</div></td></tr><tr><td style="font-weight:bold;vertical-align:top;">remote_port</td><td style="vertical-align:top;">:</td><td><div>53729</div></td></tr><tr><td style="font-weight:bold;vertical-align:top;">request_method</td><td style="vertical-align:top;">:</td><td><div>POST</div></td></tr><tr><td style="font-weight:bold;vertical-align:top;">request_uri</td><td style="vertical-align:top;">:</td><td><div>/EasyCommerce/default/user/login?_next=/EasyCommerce/default/buyer/vendor_</div></td></tr><tr><td style="font-weight:bold;vertical-align:top;">script_name</td><td style="vertical-align:top;">:</td><td><div></div></td></tr><tr><td style="font-weight:bold;vertical-align:top;">server_name</td><td style="vertical-align:top;">:</td><td><div>eduroam-169-233-205-238.ucsc.edu</div></td></tr><tr><td style="font-weight:bold;vertical-align:top;">server_port</td><td style="vertical-align:top;">:</td><td><div>8000</div></td></tr><tr><td style="font-weight:bold;vertical-align:top;">server_protocol</td><td style="vertical-align:top;">:</td><td><div>HTTP/1.1</div></td></tr><tr><td style="font-weight:bold;vertical-align:top;">server_software</td><td style="vertical-align:top;">:</td><td><div>Rocket 1.2.6</div></td></tr><tr><td style="font-weight:bold;vertical-align:top;">web2py_path</td><td style="vertical-align:top;">:</td><td><div>/Users/LC-3/Documents/CMPS183/Project/web2py</div></td></tr><tr><td style="font-weight:bold;vertical-align:top;">web2py_version</td><td style="vertical-align:top;">:</td><td><div>2.14.6-stable+timestamp.2016.05.10.00.21.47</div></td></tr><tr><td style="font-weight:bold;vertical-align:top;">wsgi.errors</td><td style="vertical-align:top;">:</td><td><div>&lt;open file &#x27;&lt;stderr&gt;&#x27;, mode &#x27;w&#x27; at 0x1078c51e0&gt;</div></td></tr><tr><td style="font-weight:bold;vertical-align:top;">wsgi.file_wrapper</td><td style="vertical-align:top;">:</td><td><div>&lt;class wsgiref.util.FileWrapper at 0x10885b600&gt;</div></td></tr><tr><td style="font-weight:bold;vertical-align:top;">wsgi.input</td><td style="vertical-align:top;">:</td><td><div>&lt;socket._fileobject object at 0x10d102a50&gt;</div></td></tr><tr><td style="font-weight:bold;vertical-align:top;">wsgi.multiprocess</td><td style="vertical-align:top;">:</td><td><div>False</div></td></tr><tr><td style="font-weight:bold;vertical-align:top;">wsgi.multithread</td><td style="vertical-align:top;">:</td><td><div>True</div></td></tr><tr><td style="font-weight:bold;vertical-align:top;">wsgi.run_once</td><td style="vertical-align:top;">:</td><td><div>False</div></td></tr><tr><td style="font-weight:bold;vertical-align:top;">wsgi.url_scheme</td><td style="vertical-align:top;">:</td><td><div>http</div></td></tr><tr><td style="font-weight:bold;vertical-align:top;">wsgi.version</td><td style="vertical-align:top;">:</td><td><div><table><tr><td><div>1</div></td></tr><tr><td><div>0</div></td></tr></table></div></td></tr><tr><td style="font-weight:bold;vertical-align:top;">wsgi_errors</td><td style="vertical-align:top;">:</td><td><div>&lt;open file &#x27;&lt;stderr&gt;&#x27;, mode &#x27;w&#x27; at 0x1078c51e0&gt;</div></td></tr><tr><td style="font-weight:bold;vertical-align:top;">wsgi_file_wrapper</td><td style="vertical-align:top;">:</td><td><div>&lt;class wsgiref.util.FileWrapper at 0x10885b600&gt;</div></td></tr><tr><td style="font-weight:bold;vertical-align:top;">wsgi_input</td><td style="vertical-align:top;">:</td><td><div>&lt;socket._fileobject object at 0x10d102a50&gt;</div></td></tr><tr><td style="font-weight:bold;vertical-align:top;">wsgi_multiprocess</td><td style="vertical-align:top;">:</td><td><div>False</div></td></tr><tr><td style="font-weight:bold;vertical-align:top;">wsgi_multithread</td><td style="vertical-align:top;">:</td><td><div>True</div></td></tr><tr><td style="font-weight:bold;vertical-align:top;">wsgi_run_once</td><td style="vertical-align:top;">:</td><td><div>False</div></td></tr><tr><td style="font-weight:bold;vertical-align:top;">wsgi_url_scheme</td><td style="vertical-align:top;">:</td><td><div>http</div></td></tr><tr><td style="font-weight:bold;vertical-align:top;">wsgi_version</td><td style="vertical-align:top;">:</td><td><div><table><tr><td><div>1</div></td></tr><tr><td><div>0</div></td></tr></table></div></td></tr></table></div></td></tr><tr><td style="font-weight:bold;vertical-align:top;">extension</td><td style="vertical-align:top;">:</td><td><div>html</div></td></tr><tr><td style="font-weight:bold;vertical-align:top;">folder</td><td style="vertical-align:top;">:</td><td><div>/Users/LC-3/Documents/CMPS183/Project/web2py/applications/EasyCommerce/</div></td></tr><tr><td style="font-weight:bold;vertical-align:top;">function</td><td style="vertical-align:top;">:</td><td><div>user</div></td></tr><tr><td style="font-weight:bold;vertical-align:top;">global_settings</td><td style="vertical-align:top;">:</td><td><div><table><tr><td style="font-weight:bold;vertical-align:top;">app_folders</td><td style="vertical-align:top;">:</td><td><div>set([&#x27;/Users/LC-3/Documents/CMPS183/Project/web2py/applications/welcome/&#x27;, &#x27;/Users/LC-3/Documents/CMPS183/Project/web2py/applications/EasyCommerce/&#x27;, &#x27;/Users/LC-3/Documents/CMPS183/Project/web2py/applications/admin/&#x27;])</div></td></tr><tr><td style="font-weight:bold;vertical-align:top;">applications_parent</td><td style="vertical-align:top;">:</td><td><div>/Users/LC-3/Documents/CMPS183/Project/web2py</div></td></tr><tr><td style="font-weight:bold;vertical-align:top;">cmd_args</td><td style="vertical-align:top;">:</td><td><div><table></table></div></td></tr><tr><td style="font-weight:bold;vertical-align:top;">cmd_options</td><td style="vertical-align:top;">:</td><td><div>&lt;Values at 0x1088b8998: {&#x27;verbose&#x27;: False, &#x27;ip&#x27;: &#x27;127.0.0.1&#x27;, &#x27;debuglevel&#x27;: 30, &#x27;with_scheduler&#x27;: False, &#x27;shutdown_timeout&#x27;: 5, &#x27;taskbar&#x27;: False, &#x27;with_coverage&#x27;: False, &#x27;pid_filename&#x27;: &#x27;httpserver.pid&#x27;, &#x27;maxthreads&#x27;: None, &#x27;softcron&#x27;: False, &#x27;server_name&#x27;: &#x27;eduroam-169-233-205-238.ucsc.edu&#x27;, &#x27;bpython&#x27;: False, &#x27;nogui&#x27;: False, &#x27;port&#x27;: 8000, &#x27;print_errors&#x27;: False, &#x27;extcron&#x27;: False, &#x27;runcron&#x27;: False, &#x27;run_system_tests&#x27;: False, &#x27;test&#x27;: None, &#x27;folder&#x27;: &#x27;/Users/LC-3/Documents/CMPS183/Project/web2py&#x27;, &#x27;config&#x27;: &#x27;&#x27;, &#x27;minthreads&#x27;: None, &#x27;shell&#x27;: None, &#x27;run&#x27;: &#x27;&#x27;, &#x27;log_filename&#x27;: &#x27;httpserver.log&#x27;, &#x27;profiler_dir&#x27;: None, &#x27;args&#x27;: [&#x27;&#x27;], &#x27;socket_timeout&#x27;: 5, &#x27;ssl_ca_certificate&#x27;: None, &#x27;scheduler&#x27;: None, &#x27;interfaces&#x27;: None, &#x27;ssl_private_key&#x27;: &#x27;&#x27;, &#x27;gae&#x27;: None, &#x27;password&#x27;: &#x27;******&#x27;, &#x27;request_queue_size&#x27;: 5, &#x27;ssl_certificate&#x27;: &#x27;&#x27;, &#x27;cronjob&#x27;: False, &#x27;numthreads&#x27;: None, &#x27;quiet&#x27;: False, &#x27;import_models&#x27;: False, &#x27;timeout&#x27;: 10, &#x27;plain&#x27;: False, &#x27;nobanner&#x27;: False}&gt;</div></td></tr><tr><td style="font-weight:bold;vertical-align:top;">db_sessions</td><td style="vertical-align:top;">:</td><td><div>set([])</div></td></tr><tr><td style="font-weight:bold;vertical-align:top;">debugging</td><td style="vertical-align:top;">:</td><td><div>True</div></td></tr><tr><td style="font-weight:bold;vertical-align:top;">gluon_parent</td><td style="vertical-align:top;">:</td><td><div>/Users/LC-3/Documents/CMPS183/Project/web2py</div></td></tr><tr><td style="font-weight:bold;vertical-align:top;">is_jython</td><td style="vertical-align:top;">:</td><td><div>False</div></td></tr><tr><td style="font-weight:bold;vertical-align:top;">is_pypy</td><td style="vertical-align:top;">:</td><td><div>False</div></td></tr><tr><td style="font-weight:bold;vertical-align:top;">is_source</td><td style="vertical-align:top;">:</td><td><div>True</div></td></tr><tr><td style="font-weight:bold;vertical-align:top;">local_hosts</td><td style="vertical-align:top;">:</td><td><div><table><tr><td><div>eduroam-169-233-205-238.ucsc.edu</div></td></tr><tr><td><div>::1</div></td></tr><tr><td><div>::ffff:127.0.0.1</div></td></tr><tr><td><div>127.0.0.1</div></td></tr><tr><td><div>169.233.205.238</div></td></tr></table></div></td></tr><tr><td style="font-weight:bold;vertical-align:top;">web2py_version</td><td style="vertical-align:top;">:</td><td><div>2.14.6-stable+timestamp.2016.05.10.00.21.47</div></td></tr></table></div></td></tr><tr><td style="font-weight:bold;vertical-align:top;">is_https</td><td style="vertical-align:top;">:</td><td><div>False</div></td></tr><tr><td style="font-weight:bold;vertical-align:top;">is_local</td><td style="vertical-align:top;">:</td><td><div>True</div></td></tr><tr><td style="font-weight:bold;vertical-align:top;">is_restful</td><td style="vertical-align:top;">:</td><td><div>False</div></td></tr><tr><td style="font-weight:bold;vertical-align:top;">is_scheduler</td><td style="vertical-align:top;">:</td><td><div>False</div></td></tr><tr><td style="font-weight:bold;vertical-align:top;">is_shell</td><td style="vertical-align:top;">:</td><td><div>False</div></td></tr><tr><td style="font-weight:bold;vertical-align:top;">now</td><td style="vertical-align:top;">:</td><td><div>datetime.datetime(2017, 3, 10, 10, 7, 30, 124562)</div></td></tr><tr><td style="font-weight:bold;vertical-align:top;">raw_args</td><td style="vertical-align:top;">:</td><td><div>login</div></td></tr><tr><td style="font-weight:bold;vertical-align:top;">raw_extension</td><td style="vertical-align:top;">:</td><td><div>None</div></td></tr><tr><td style="font-weight:bold;vertical-align:top;">url</td><td style="vertical-align:top;">:</td><td><div>/EasyCommerce/default/user/login</div></td></tr><tr><td style="font-weight:bold;vertical-align:top;">utcnow</td><td style="vertical-align:top;">:</td><td><div>datetime.datetime(2017, 3, 10, 18, 7, 30, 124576)</div></td></tr><tr><td style="font-weight:bold;vertical-align:top;">wsgi</td><td style="vertical-align:top;">:</td><td><div>&lt;gluon.main.LazyWSGI object at 0x10cf87a10&gt;</div></td></tr></table></div>'
tRp62
sS'frames'
p63
(lp64
(dp65
S'file'
p66
S'/Users/LC-3/Documents/CMPS183/Project/web2py/gluon/restricted.py'
p67
sS'dump'
p68
(dp69
S'environment'
p70
S"{'A': <class 'gluon.html.A'>, 'ANY_OF': <class 'gluon.validators.ANY_OF'>, 'ASSIGNJS': <function ASSIGNJS>, 'Auth': <class 'gluon.tools.Auth'>, 'B': <class 'gluon.html.B'>, 'BEAUTIFY': <class 'gluon.html.BEAUTIFY'>, 'BODY': <class 'gluon.html.BODY'>, 'BR': <class 'gluon.html.BR'>, 'BUTTON': <class 'gluon.html.BUTTON'>, 'CAT': <class 'gluon.html.CAT'>, ...}"
p71
sS'ccode'
p72
S'<code object <module> at 0x10df3a930, file "/Use...ns/EasyCommerce/controllers/default.py", line 10>'
p73
ssS'lnum'
p74
I227
sS'lines'
p75
(dp76
I224
S'            ccode = code'
p77
sI225
S'        else:'
p78
sI226
S'            ccode = compile2(code, layer)'
p79
sI227
S'        exec ccode in environment'
p80
sI228
S'    except HTTP:'
p81
sI229
S'        raise'
p82
sI230
S'    except RestrictedError:'
p83
sI231
S'        # do not encapsulate (obfuscate) the original RestrictedError'
p84
sI222
S'    try:'
p85
sI223
S'        if isinstance(code, types.CodeType):'
p86
ssS'call'
p87
S"(code='# -*- coding: utf-8 -*-\\n# this file is released ...t, db)\\n\\n\\n\\n\\nresponse._vars=response._caller(user)\\n', environment={'A': <class 'gluon.html.A'>, 'ANY_OF': <class 'gluon.validators.ANY_OF'>, 'ASSIGNJS': <function ASSIGNJS>, 'Auth': <class 'gluon.tools.Auth'>, 'B': <class 'gluon.html.B'>, 'BEAUTIFY': <class 'gluon.html.BEAUTIFY'>, 'BODY': <class 'gluon.html.BODY'>, 'BR': <class 'gluon.html.BR'>, 'BUTTON': <class 'gluon.html.BUTTON'>, 'CAT': <class 'gluon.html.CAT'>, ...}, layer='/Users/LC-3/Documents/CMPS183/Project/web2py/applications/EasyCommerce/controllers/default.py')"
p88
sS'func'
p89
S'restricted'
p90
sa(dp91
g66
S'/Users/LC-3/Documents/CMPS183/Project/web2py/applications/EasyCommerce/controllers/default.py'
p92
sg68
(dp93
sg74
I160
sg75
(dp94
I149
S'@cache.action()'
p95
sI150
S'def download():'
p96
sI151
S'    """'
p97
sI152
S'    allows downloading of uploaded files'
p98
sI153
S'    http://..../[app]/default/download/[filename]'
p99
sI154
S'    """'
p100
sI155
S'    return response.download(request, db)'
p101
sI156
S''
sI157
S''
sI158
S''
ssg87
S'()'
p102
sg89
S'<module>'
p103
sa(dp104
g66
S'/Users/LC-3/Documents/CMPS183/Project/web2py/gluon/globals.py'
p105
sg68
(dp106
S'self'
p107
S'undefined'
p108
sS'f'
S'<function user>'
p109
ssg74
I417
sg75
(dp110
I416
S'        self._vars = None'
p111
sI417
S'        self._caller = lambda f: f()'
p112
sI418
S'        self._view_environment = None'
p113
sI419
S'        self._custom_commit = None'
p114
sI420
S'        self._custom_rollback = None'
p115
sI421
S"        self.generic_patterns = ['*']"
p116
sI412
S"        self.flash = ''            # used by the default view layout"
p117
sI413
S'        self.meta = Storage()      # used by web2py_ajax.html'
p118
sI414
S'        self.menu = []             # used by the default view layout'
p119
sI415
S'        self.files = []            # used by web2py_ajax.html'
p120
ssg87
S'(f=<function user>)'
p121
sg89
S'<lambda>'
p122
sa(dp123
g66
S'/Users/LC-3/Documents/CMPS183/Project/web2py/applications/EasyCommerce/controllers/default.py'
p124
sg68
(dp125
S'global auth'
p126
S'<gluon.tools.Auth object>'
p127
sS'form'
p128
g108
sS'builtindict'
p129
S"<type 'dict'>"
p130
ssg74
I146
sg75
(dp131
I141
S'    """'
p132
sI142
S''
sI143
S'    #auth.settings.register_onaccept = add_membership(user_id)'
p133
sI144
S'    #auth.settings.register_onaccept = __add_user_membership'
p134
sI145
S'    # already existing code'
p135
sI146
S'    return dict(form=auth())'
p136
sI147
S''
sI148
S''
sI149
S'@cache.action()'
p137
sI150
S'def download():'
p138
ssg87
S'()'
p139
sg89
S'user'
p140
sa(dp141
g66
S'/Users/LC-3/Documents/CMPS183/Project/web2py/gluon/tools.py'
p142
sg68
(dp143
S'self'
p144
S'<gluon.tools.Auth object>'
p145
sS'args'
p146
S"['login']"
p147
sS'builtingetattr'
p148
S'<built-in function getattr>'
p149
ssg74
I1941
sg75
(dp150
I1936
S"                       'impersonate', 'not_authorized', 'confirm_registration',"
p151
sI1937
S"                       'bulk_register', 'manage_tokens', 'jwt'):"
p152
sI1938
S"            if len(request.args) >= 2 and args[0] == 'impersonate':"
p153
sI1939
S'                return getattr(self, args[0])(request.args[1])'
p154
sI1940
S'            else:'
p155
sI1941
S'                return getattr(self, args[0])()'
p156
sI1942
S"        elif args[0] == 'cas' and not self.settings.cas_provider:"
p157
sI1943
S"            if args(1) == self.settings.cas_actions['login']:"
p158
sI1944
S'                return self.cas_login(version=2)'
p159
sI1945
S"            elif args(1) == self.settings.cas_actions['validate']:"
p160
ssg87
S'(self=<gluon.tools.Auth object>)'
p161
sg89
S'__call__'
p162
sa(dp163
g66
S'/Users/LC-3/Documents/CMPS183/Project/web2py/gluon/tools.py'
p164
sg68
(dp165
S'table_user'
p166
S'<Table auth_user (id, first_name, last_name, ema... reset_password_key, registration_id, User_Type)>'
p167
sS'username'
p168
S"'email'"
p169
sS'entered_username'
p170
S"'d@a.com'"
p171
sS'user'
p172
S'None'
p173
ssg74
I2963
sg75
(dp174
I2958
S'                    entered_username = form.vars[username]'
p175
sI2959
S"                    if multi_login and '@' in entered_username:"
p176
sI2960
S"                        # if '@' in username check for email, not username"
p177
sI2961
S'                        user = table_user(email=entered_username)'
p178
sI2962
S'                    else:'
p179
sI2963
S'                        user = table_user(**{username: entered_username})'
p180
sI2964
S'                    if user:'
p181
sI2965
S'                        # user in db, check if registration pending or disabled'
p182
sI2966
S'                        temp_user = user'
p183
sI2967
S"                        if (temp_user.registration_key or '').startswith('pending'):"
p184
ssg87
S"(self=<gluon.tools.Auth object>, next='/EasyCommerce/default/buyer/vendor_', onvalidation=[], onaccept=[], log='User %(id)s Logged-in')"
p185
sg89
S'login'
p186
sa(dp187
g66
S'/Users/LC-3/Documents/CMPS183/Project/web2py/gluon/packages/dal/pydal/objects.py'
p188
sg68
(dp189
S'orderby_on_limitby'
p190
g108
sS').first'
p191
g108
sS'builtinFalse'
p192
S'False'
p193
ssg74
I546
sg75
(dp194
I544
S'                                          for_update=for_update,'
p195
sI545
S'                                          orderby=orderby,'
p196
sI546
S'                                          orderby_on_limitby=False).first()'
p197
sI547
S'        else:'
p198
sI548
S'            return None'
p199
sI549
S''
sI550
S'    def __setitem__(self, key, value):'
p200
sI541
S'        elif kwargs:'
p201
sI542
S'            query = reduce(lambda a, b: a & b, [self[k] == v for k, v in iteritems(kwargs)])'
p202
sI543
S'            return self._db(query).select(limitby=(0, 1),'
p203
ssg87
S"(self=<Table auth_user (id, first_name, last_name, ema... reset_password_key, registration_id, User_Type)>, key=<function <lambda>>, **kwargs={'email': 'd@a.com'})"
p204
sg89
g162
sa(dp205
g66
S'/Users/LC-3/Documents/CMPS183/Project/web2py/gluon/packages/dal/pydal/objects.py'
p206
sg68
(dp207
S'self.query'
p208
S"<Query (auth_user.email = 'd@a.com')>"
p209
sS'adapter.select'
p210
S'<bound method SQLiteAdapter.select of <pydal.adapters.sqlite.SQLiteAdapter object>>'
p211
sS'fields'
p212
S'[<pydal.objects.Field object>, <pydal.objects.Field object>, <pydal.objects.Field object>, <pydal.objects.Field object>, <pydal.objects.Field object>, <pydal.objects.Field object>, <pydal.objects.Field object>, <pydal.objects.Field object>, <pydal.objects.Field object>]'
p213
sS'adapter'
p214
S'<pydal.adapters.sqlite.SQLiteAdapter object>'
p215
sS'attributes'
p216
S"{'for_update': False, 'limitby': (0, 1), 'orderby': None, 'orderby_on_limitby': False}"
p217
sS'self'
p218
S"<Set (auth_user.email = 'd@a.com')>"
p219
ssg74
I2020
sg75
(dp220
I2016
S"                                    attributes.get('left', None),"
p221
sI2017
S"                                    attributes.get('orderby', None),"
p222
sI2018
S"                                    attributes.get('groupby', None))"
p223
sI2019
S'        fields = adapter.expand_all(fields, tablenames)'
p224
sI2020
S'        return adapter.select(self.query, fields, attributes)'
p225
sI2021
S''
sI2022
S'    def iterselect(self, *fields, **attributes):'
p226
sI2023
S'        adapter = self.db._adapter'
p227
sI2024
S'        tablenames = adapter.tables(self.query,'
p228
sI2015
S"                                    attributes.get('join', None),"
p229
ssg87
S"(self=<Set (auth_user.email = 'd@a.com')>, *fields=[<pydal.objects.Field object>, <pydal.objects.Field object>, <pydal.objects.Field object>, <pydal.objects.Field object>, <pydal.objects.Field object>, <pydal.objects.Field object>, <pydal.objects.Field object>, <pydal.objects.Field object>, <pydal.objects.Field object>], **attributes={'for_update': False, 'limitby': (0, 1), 'orderby': None, 'orderby_on_limitby': False})"
p230
sg89
S'select'
p231
sa(dp232
g66
S'/Users/LC-3/Documents/CMPS183/Project/web2py/gluon/packages/dal/pydal/adapters/sqlite.py'
p233
sg68
(dp234
S'fields'
p235
S'[<pydal.objects.Field object>, <pydal.objects.Field object>, <pydal.objects.Field object>, <pydal.objects.Field object>, <pydal.objects.Field object>, <pydal.objects.Field object>, <pydal.objects.Field object>, <pydal.objects.Field object>, <pydal.objects.Field object>]'
p236
sS'self'
p237
S'<pydal.adapters.sqlite.SQLiteAdapter object>'
p238
sS').select'
p239
S'<bound method SQLiteAdapter.select of <pydal.adapters.sqlite.SQLiteAdapter object>>'
p240
sS'attributes'
p241
S"{'for_update': False, 'limitby': (0, 1), 'orderby': None, 'orderby_on_limitby': False}"
p242
sS'global SQLiteAdapter'
p243
S"<class 'pydal.adapters.sqlite.SQLiteAdapter'>"
p244
sS'query'
p245
S"<Query (auth_user.email = 'd@a.com')>"
p246
sS'builtinsuper'
p247
S"<type 'super'>"
p248
ssg74
I123
sg75
(dp249
I118
S'        Note that the entire database, rather than one record, is locked'
p250
sI119
S'        (it will be locked eventually anyway by the following UPDATE).'
p251
sI120
S'        """'
p252
sI121
S"        if attributes.get('for_update', False) and not 'cache' in attributes:"
p253
sI122
S"            self.execute('BEGIN IMMEDIATE TRANSACTION;')"
p254
sI123
S'        return super(SQLiteAdapter, self).select(query, fields, attributes)'
p255
sI124
S''
sI125
S''
sI126
S'SPATIALLIBS = {'
p256
sI127
S"    'Windows':'mod_spatialite.dll',"
p257
ssg87
S"(self=<pydal.adapters.sqlite.SQLiteAdapter object>, query=<Query (auth_user.email = 'd@a.com')>, fields=[<pydal.objects.Field object>, <pydal.objects.Field object>, <pydal.objects.Field object>, <pydal.objects.Field object>, <pydal.objects.Field object>, <pydal.objects.Field object>, <pydal.objects.Field object>, <pydal.objects.Field object>, <pydal.objects.Field object>], attributes={'for_update': False, 'limitby': (0, 1), 'orderby': None, 'orderby_on_limitby': False})"
p258
sg89
g231
sa(dp259
g66
S'/Users/LC-3/Documents/CMPS183/Project/web2py/gluon/packages/dal/pydal/adapters/base.py'
p260
sg68
(dp261
S'fields'
p262
S'[<pydal.objects.Field object>, <pydal.objects.Field object>, <pydal.objects.Field object>, <pydal.objects.Field object>, <pydal.objects.Field object>, <pydal.objects.Field object>, <pydal.objects.Field object>, <pydal.objects.Field object>, <pydal.objects.Field object>]'
p263
sS'self'
p264
S'<pydal.adapters.sqlite.SQLiteAdapter object>'
p265
sS'attributes'
p266
S"{'for_update': False, 'limitby': (0, 1), 'orderby': None, 'orderby_on_limitby': False}"
p267
sS'self._select_aux'
p268
S'<bound method SQLiteAdapter._select_aux of <pydal.adapters.sqlite.SQLiteAdapter object>>'
p269
sS'sql'
p270
S'"SELECT  auth_user.id, auth_user.first_name, auth...E (auth_user.email = \'d@a.com\') LIMIT 1 OFFSET 0;"'
p271
ssg74
I1296
sg75
(dp272
I1291
S'            return cache_model('
p273
sI1292
S'                key,'
p274
sI1293
S'                lambda self=self,args=args:self._select_aux(*args),'
p275
sI1294
S'                time_expire)'
p276
sI1295
S'        else:'
p277
sI1296
S'            return self._select_aux(sql,fields,attributes)'
p278
sI1297
S''
sI1298
S'    def iterselect(self, query, fields, attributes):'
p279
sI1299
S'        sql = self._select(query, fields, attributes)'
p280
sI1300
S"        cacheable = attributes.get('cacheable', False)"
p281
ssg87
S"(self=<pydal.adapters.sqlite.SQLiteAdapter object>, query=<Query (auth_user.email = 'd@a.com')>, fields=[<pydal.objects.Field object>, <pydal.objects.Field object>, <pydal.objects.Field object>, <pydal.objects.Field object>, <pydal.objects.Field object>, <pydal.objects.Field object>, <pydal.objects.Field object>, <pydal.objects.Field object>, <pydal.objects.Field object>], attributes={'for_update': False, 'limitby': (0, 1), 'orderby': None, 'orderby_on_limitby': False})"
p282
sg89
g231
sa(dp283
g66
S'/Users/LC-3/Documents/CMPS183/Project/web2py/gluon/packages/dal/pydal/adapters/base.py'
p284
sg68
(dp285
S'self'
p286
S'<pydal.adapters.sqlite.SQLiteAdapter object>'
p287
sS'self.execute'
p288
S'<bound method SQLiteAdapter.execute of <pydal.adapters.sqlite.SQLiteAdapter object>>'
p289
sS'sql'
p290
S'"SELECT  auth_user.id, auth_user.first_name, auth...E (auth_user.email = \'d@a.com\') LIMIT 1 OFFSET 0;"'
p291
ssg74
I1253
sg75
(dp292
I1248
S''
sI1249
S'    def _select_aux(self, sql, fields, attributes):'
p293
sI1250
S'        args_get = attributes.get'
p294
sI1251
S"        cache = args_get('cache',None)"
p295
sI1252
S'        if not cache:'
p296
sI1253
S'            self.execute(sql)'
p297
sI1254
S'            rows = self._fetchall()'
p298
sI1255
S'        else:'
p299
sI1256
S'            if isinstance(cache, dict):'
p300
sI1257
S"                cache_model = cache['model']"
p301
ssg87
S'(self=<pydal.adapters.sqlite.SQLiteAdapter object>, sql="SELECT  auth_user.id, auth_user.first_name, auth...E (auth_user.email = \'d@a.com\') LIMIT 1 OFFSET 0;", fields=[<pydal.objects.Field object>, <pydal.objects.Field object>, <pydal.objects.Field object>, <pydal.objects.Field object>, <pydal.objects.Field object>, <pydal.objects.Field object>, <pydal.objects.Field object>, <pydal.objects.Field object>, <pydal.objects.Field object>], attributes={\'for_update\': False, \'limitby\': (0, 1), \'orderby\': None, \'orderby_on_limitby\': False})'
p302
sg89
S'_select_aux'
p303
sa(dp304
g66
S'/Users/LC-3/Documents/CMPS183/Project/web2py/gluon/packages/dal/pydal/adapters/base.py'
p305
sg68
(dp306
S'a'
S'("SELECT  auth_user.id, auth_user.first_name, auth...E (auth_user.email = \'d@a.com\') LIMIT 1 OFFSET 0;",)'
p307
sS'self'
p308
S'<pydal.adapters.sqlite.SQLiteAdapter object>'
p309
sS'b'
g21
sS'self.log_execute'
p310
S'<bound method SQLiteAdapter.log_execute of <pydal.adapters.sqlite.SQLiteAdapter object>>'
p311
ssg74
I1388
sg75
(dp312
I1383
S'        self.db._timings.append((command,time.time()-t0))'
p313
sI1384
S'        del self.db._timings[:-TIMINGSSIZE]'
p314
sI1385
S'        return ret'
p315
sI1386
S''
sI1387
S'    def execute(self, *a, **b):'
p316
sI1388
S'        return self.log_execute(*a, **b)'
p317
sI1389
S''
sI1390
S'    def execute_test_query(self):'
p318
sI1391
S'        return self.execute(self.test_query)'
p319
sI1392
S''
ssg87
S'(self=<pydal.adapters.sqlite.SQLiteAdapter object>, *a=("SELECT  auth_user.id, auth_user.first_name, auth...E (auth_user.email = \'d@a.com\') LIMIT 1 OFFSET 0;",), **b={})'
p320
sg89
S'execute'
p321
sa(dp322
g66
S'/Users/LC-3/Documents/CMPS183/Project/web2py/gluon/packages/dal/pydal/adapters/base.py'
p323
sg68
(dp324
S'a'
S'("SELECT  auth_user.id, auth_user.first_name, auth...E (auth_user.email = \'d@a.com\') LIMIT 1 OFFSET 0;",)'
p325
sS'b'
g21
sS'self'
p326
S'<pydal.adapters.sqlite.SQLiteAdapter object>'
p327
sS'ret'
p328
g108
sS'command'
p329
S'"SELECT  auth_user.id, auth_user.first_name, auth...E (auth_user.email = \'d@a.com\') LIMIT 1 OFFSET 0;"'
p330
sS'self.get_cursor'
p331
S'<bound method SQLiteAdapter.get_cursor of <pydal.adapters.sqlite.SQLiteAdapter object>>'
p332
sS').execute'
p333
g108
ssg74
I1382
sg75
(dp334
I1377
S'            command = self.filter_sql_command(command)'
p335
sI1378
S'        if self.db._debug:'
p336
sI1379
S"            self.db.logger.debug('SQL: %s' % command)"
p337
sI1380
S'        self.db._lastsql = command'
p338
sI1381
S'        t0 = time.time()'
p339
sI1382
S'        ret = self.get_cursor().execute(command, *a[1:], **b)'
p340
sI1383
S'        self.db._timings.append((command,time.time()-t0))'
p341
sI1384
S'        del self.db._timings[:-TIMINGSSIZE]'
p342
sI1385
S'        return ret'
p343
sI1386
S''
ssg87
S'(self=<pydal.adapters.sqlite.SQLiteAdapter object>, *a=("SELECT  auth_user.id, auth_user.first_name, auth...E (auth_user.email = \'d@a.com\') LIMIT 1 OFFSET 0;",), **b={})'
p344
sg89
S'log_execute'
p345
sasS'pyver'
p346
S'Python 2.7.10: /System/Library/Frameworks/Python.framework/Versions/2.7/Resources/Python.app/Contents/MacOS/Python (prefix: /System/Library/Frameworks/Python.framework/Versions/2.7)'
p347
sS'session'
p348
g61
(S's8\x01\x00\x00<div><table><tr><td style="font-weight:bold;vertical-align:top;">last_orderby</td><td style="vertical-align:top;">:</td><td><div>None</div></td></tr><tr><td style="font-weight:bold;vertical-align:top;">last_query</td><td style="vertical-align:top;">:</td><td><div>db.vendor_.id&gt;0</div></td></tr></table></div>'
tRp349
sS'etype'
p350
S"<class 'sqlite3.OperationalError'>"
p351
sS'date'
p352
S'Fri Mar 10 10:07:30 2017'
p353
sS'response'
p354
g61
(S's\x13=\x00\x00<div><table><tr><td style="font-weight:bold;vertical-align:top;">body</td><td style="vertical-align:top;">:</td><td><div>&lt;cStringIO.StringO object at 0x10d3250d8&gt;</div></td></tr><tr><td style="font-weight:bold;vertical-align:top;">cookies</td><td style="vertical-align:top;">:</td><td><div><table><tr><td style="font-weight:bold;vertical-align:top;">session_id_easycommerce</td><td style="vertical-align:top;">:</td><td><div>127.0.0.1-ef5f595e-8fa5-4c9e-beb0-aacd9bbaeb1e<table><tr><td style="font-weight:bold;vertical-align:top;">comment</td><td style="vertical-align:top;">:</td><td><div></div></td></tr><tr><td style="font-weight:bold;vertical-align:top;">domain</td><td style="vertical-align:top;">:</td><td><div></div></td></tr><tr><td style="font-weight:bold;vertical-align:top;">expires</td><td style="vertical-align:top;">:</td><td><div></div></td></tr><tr><td style="font-weight:bold;vertical-align:top;">httponly</td><td style="vertical-align:top;">:</td><td><div></div></td></tr><tr><td style="font-weight:bold;vertical-align:top;">max-age</td><td style="vertical-align:top;">:</td><td><div></div></td></tr><tr><td style="font-weight:bold;vertical-align:top;">path</td><td style="vertical-align:top;">:</td><td><div>/</div></td></tr><tr><td style="font-weight:bold;vertical-align:top;">secure</td><td style="vertical-align:top;">:</td><td><div></div></td></tr><tr><td style="font-weight:bold;vertical-align:top;">version</td><td style="vertical-align:top;">:</td><td><div></div></td></tr></table></div></td></tr></table></div></td></tr><tr><td style="font-weight:bold;vertical-align:top;">delimiters</td><td style="vertical-align:top;">:</td><td><div><table><tr><td><div>{{</div></td></tr><tr><td><div>}}</div></td></tr></table></div></td></tr><tr><td style="font-weight:bold;vertical-align:top;">files</td><td style="vertical-align:top;">:</td><td><div><table></table></div></td></tr><tr><td style="font-weight:bold;vertical-align:top;">flash</td><td style="vertical-align:top;">:</td><td><div></div></td></tr><tr><td style="font-weight:bold;vertical-align:top;">form_label_separator</td><td style="vertical-align:top;">:</td><td><div>: </div></td></tr><tr><td style="font-weight:bold;vertical-align:top;">formstyle</td><td style="vertical-align:top;">:</td><td><div>table3cols</div></td></tr><tr><td style="font-weight:bold;vertical-align:top;">generic_patterns</td><td style="vertical-align:top;">:</td><td><div><table><tr><td><div>*</div></td></tr></table></div></td></tr><tr><td style="font-weight:bold;vertical-align:top;">google_analytics_id</td><td style="vertical-align:top;">:</td><td><div>None</div></td></tr><tr><td style="font-weight:bold;vertical-align:top;">headers</td><td style="vertical-align:top;">:</td><td><div><table><tr><td style="font-weight:bold;vertical-align:top;">X-Powered-By</td><td style="vertical-align:top;">:</td><td><div>web2py</div></td></tr></table></div></td></tr><tr><td style="font-weight:bold;vertical-align:top;">logo</td><td style="vertical-align:top;">:</td><td><div><a class="navbar-brand" href="http://www.web2py.com/" id="web2py-logo"><b>web<span>2</span>py</b>&trade;&nbsp;</a></div></td></tr><tr><td style="font-weight:bold;vertical-align:top;">menu</td><td style="vertical-align:top;">:</td><td><div><table><tr><td><div><table><tr><td><div>Home</div></td></tr><tr><td><div>False</div></td></tr><tr><td><div>/EasyCommerce/default/index</div></td></tr><tr><td><div><table></table></div></td></tr></table></div></td></tr><tr><td><div><table><tr><td><div>My Sites</div></td></tr><tr><td><div>False</div></td></tr><tr><td><div>/admin/default/site</div></td></tr></table></div></td></tr><tr><td><div><table><tr><td><div>This App</div></td></tr><tr><td><div>False</div></td></tr><tr><td><div>#</div></td></tr><tr><td><div><table><tr><td><div><table><tr><td><div>Design</div></td></tr><tr><td><div>False</div></td></tr><tr><td><div>/admin/default/design/EasyCommerce</div></td></tr></table></div></td></tr><tr><td><div><li class="divider"></li></div></td></tr><tr><td><div><table><tr><td><div>Controller</div></td></tr><tr><td><div>False</div></td></tr><tr><td><div>/admin/default/edit/EasyCommerce/controllers/default.py</div></td></tr></table></div></td></tr><tr><td><div><table><tr><td><div>View</div></td></tr><tr><td><div>False</div></td></tr><tr><td><div>/admin/default/edit/EasyCommerce/views/default/user.html</div></td></tr></table></div></td></tr><tr><td><div><table><tr><td><div>DB Model</div></td></tr><tr><td><div>False</div></td></tr><tr><td><div>/admin/default/edit/EasyCommerce/models/db.py</div></td></tr></table></div></td></tr><tr><td><div><table><tr><td><div>Menu Model</div></td></tr><tr><td><div>False</div></td></tr><tr><td><div>/admin/default/edit/EasyCommerce/models/menu.py</div></td></tr></table></div></td></tr><tr><td><div><table><tr><td><div>Config.ini</div></td></tr><tr><td><div>False</div></td></tr><tr><td><div>/admin/default/edit/EasyCommerce/private/appconfig.ini</div></td></tr></table></div></td></tr><tr><td><div><table><tr><td><div>Layout</div></td></tr><tr><td><div>False</div></td></tr><tr><td><div>/admin/default/edit/EasyCommerce/views/layout.html</div></td></tr></table></div></td></tr><tr><td><div><table><tr><td><div>Stylesheet</div></td></tr><tr><td><div>False</div></td></tr><tr><td><div>/admin/default/edit/EasyCommerce/static/css/web2py-bootstrap3.css</div></td></tr></table></div></td></tr><tr><td><div><table><tr><td><div>Database</div></td></tr><tr><td><div>False</div></td></tr><tr><td><div>/EasyCommerce/appadmin/index</div></td></tr></table></div></td></tr><tr><td><div><table><tr><td><div>Errors</div></td></tr><tr><td><div>False</div></td></tr><tr><td><div>/admin/default/errors/EasyCommerce</div></td></tr></table></div></td></tr><tr><td><div><table><tr><td><div>About</div></td></tr><tr><td><div>False</div></td></tr><tr><td><div>/admin/default/about/EasyCommerce</div></td></tr></table></div></td></tr></table></div></td></tr></table></div></td></tr><tr><td><div><table><tr><td><div>web2py.com</div></td></tr><tr><td><div>False</div></td></tr><tr><td><div>#</div></td></tr><tr><td><div><table><tr><td><div><table><tr><td><div>Download</div></td></tr><tr><td><div>False</div></td></tr><tr><td><div>http://www.web2py.com/examples/default/download</div></td></tr></table></div></td></tr><tr><td><div><table><tr><td><div>Support</div></td></tr><tr><td><div>False</div></td></tr><tr><td><div>http://www.web2py.com/examples/default/support</div></td></tr></table></div></td></tr><tr><td><div><table><tr><td><div>Demo</div></td></tr><tr><td><div>False</div></td></tr><tr><td><div>http://web2py.com/demo_admin</div></td></tr></table></div></td></tr><tr><td><div><table><tr><td><div>Quick Examples</div></td></tr><tr><td><div>False</div></td></tr><tr><td><div>http://web2py.com/examples/default/examples</div></td></tr></table></div></td></tr><tr><td><div><table><tr><td><div>FAQ</div></td></tr><tr><td><div>False</div></td></tr><tr><td><div>http://web2py.com/AlterEgo</div></td></tr></table></div></td></tr><tr><td><div><table><tr><td><div>Videos</div></td></tr><tr><td><div>False</div></td></tr><tr><td><div>http://www.web2py.com/examples/default/videos/</div></td></tr></table></div></td></tr><tr><td><div><table><tr><td><div>Free Applications</div></td></tr><tr><td><div>False</div></td></tr><tr><td><div>http://web2py.com/appliances</div></td></tr></table></div></td></tr><tr><td><div><table><tr><td><div>Plugins</div></td></tr><tr><td><div>False</div></td></tr><tr><td><div>http://web2py.com/plugins</div></td></tr></table></div></td></tr><tr><td><div><table><tr><td><div>Recipes</div></td></tr><tr><td><div>False</div></td></tr><tr><td><div>http://web2pyslices.com/</div></td></tr></table></div></td></tr></table></div></td></tr></table></div></td></tr><tr><td><div><table><tr><td><div>Documentation</div></td></tr><tr><td><div>False</div></td></tr><tr><td><div>#</div></td></tr><tr><td><div><table><tr><td><div><table><tr><td><div>Online book</div></td></tr><tr><td><div>False</div></td></tr><tr><td><div>http://www.web2py.com/book</div></td></tr></table></div></td></tr><tr><td><div><li class="divider"></li></div></td></tr><tr><td><div><table><tr><td><div>Preface</div></td></tr><tr><td><div>False</div></td></tr><tr><td><div>http://www.web2py.com/book/default/chapter/00</div></td></tr></table></div></td></tr><tr><td><div><table><tr><td><div>Introduction</div></td></tr><tr><td><div>False</div></td></tr><tr><td><div>http://www.web2py.com/book/default/chapter/01</div></td></tr></table></div></td></tr><tr><td><div><table><tr><td><div>Python</div></td></tr><tr><td><div>False</div></td></tr><tr><td><div>http://www.web2py.com/book/default/chapter/02</div></td></tr></table></div></td></tr><tr><td><div><table><tr><td><div>Overview</div></td></tr><tr><td><div>False</div></td></tr><tr><td><div>http://www.web2py.com/book/default/chapter/03</div></td></tr></table></div></td></tr><tr><td><div><table><tr><td><div>The Core</div></td></tr><tr><td><div>False</div></td></tr><tr><td><div>http://www.web2py.com/book/default/chapter/04</div></td></tr></table></div></td></tr><tr><td><div><table><tr><td><div>The Views</div></td></tr><tr><td><div>False</div></td></tr><tr><td><div>http://www.web2py.com/book/default/chapter/05</div></td></tr></table></div></td></tr><tr><td><div><table><tr><td><div>Database</div></td></tr><tr><td><div>False</div></td></tr><tr><td><div>http://www.web2py.com/book/default/chapter/06</div></td></tr></table></div></td></tr><tr><td><div><table><tr><td><div>Forms and Validators</div></td></tr><tr><td><div>False</div></td></tr><tr><td><div>http://www.web2py.com/book/default/chapter/07</div></td></tr></table></div></td></tr><tr><td><div><table><tr><td><div>Email and SMS</div></td></tr><tr><td><div>False</div></td></tr><tr><td><div>http://www.web2py.com/book/default/chapter/08</div></td></tr></table></div></td></tr><tr><td><div><table><tr><td><div>Access Control</div></td></tr><tr><td><div>False</div></td></tr><tr><td><div>http://www.web2py.com/book/default/chapter/09</div></td></tr></table></div></td></tr><tr><td><div><table><tr><td><div>Services</div></td></tr><tr><td><div>False</div></td></tr><tr><td><div>http://www.web2py.com/book/default/chapter/10</div></td></tr></table></div></td></tr><tr><td><div><table><tr><td><div>Ajax Recipes</div></td></tr><tr><td><div>False</div></td></tr><tr><td><div>http://www.web2py.com/book/default/chapter/11</div></td></tr></table></div></td></tr><tr><td><div><table><tr><td><div>Components and Plugins</div></td></tr><tr><td><div>False</div></td></tr><tr><td><div>http://www.web2py.com/book/default/chapter/12</div></td></tr></table></div></td></tr><tr><td><div><table><tr><td><div>Deployment Recipes</div></td></tr><tr><td><div>False</div></td></tr><tr><td><div>http://www.web2py.com/book/default/chapter/13</div></td></tr></table></div></td></tr><tr><td><div><table><tr><td><div>Other Recipes</div></td></tr><tr><td><div>False</div></td></tr><tr><td><div>http://www.web2py.com/book/default/chapter/14</div></td></tr></table></div></td></tr><tr><td><div><table><tr><td><div>Helping web2py</div></td></tr><tr><td><div>False</div></td></tr><tr><td><div>http://www.web2py.com/book/default/chapter/15</div></td></tr></table></div></td></tr><tr><td><div><table><tr><td><div>Buy web2py\'s book</div></td></tr><tr><td><div>False</div></td></tr><tr><td><div>http://stores.lulu.com/web2py</div></td></tr></table></div></td></tr></table></div></td></tr></table></div></td></tr><tr><td><div><table><tr><td><div>Community</div></td></tr><tr><td><div>False</div></td></tr><tr><td><div>None</div></td></tr><tr><td><div><table><tr><td><div><table><tr><td><div>Groups</div></td></tr><tr><td><div>False</div></td></tr><tr><td><div>http://www.web2py.com/examples/default/usergroups</div></td></tr></table></div></td></tr><tr><td><div><table><tr><td><div>Twitter</div></td></tr><tr><td><div>False</div></td></tr><tr><td><div>http://twitter.com/web2py</div></td></tr></table></div></td></tr><tr><td><div><table><tr><td><div>Live Chat</div></td></tr><tr><td><div>False</div></td></tr><tr><td><div>http://webchat.freenode.net/?channels=web2py</div></td></tr></table></div></td></tr></table></div></td></tr></table></div></td></tr></table></div></td></tr><tr><td style="font-weight:bold;vertical-align:top;">meta</td><td style="vertical-align:top;">:</td><td><div><table></table></div></td></tr><tr><td style="font-weight:bold;vertical-align:top;">models_to_run</td><td style="vertical-align:top;">:</td><td><div><table><tr><td><div>^\\w+\\.py$</div></td></tr><tr><td><div>^default/\\w+\\.py$</div></td></tr><tr><td><div>^default/user/\\w+\\.py$</div></td></tr></table></div></td></tr><tr><td style="font-weight:bold;vertical-align:top;">postprocessing</td><td style="vertical-align:top;">:</td><td><div><table></table></div></td></tr><tr><td style="font-weight:bold;vertical-align:top;">session_client</td><td style="vertical-align:top;">:</td><td><div>127.0.0.1</div></td></tr><tr><td style="font-weight:bold;vertical-align:top;">session_cookie_compression_level</td><td style="vertical-align:top;">:</td><td><div>None</div></td></tr><tr><td style="font-weight:bold;vertical-align:top;">session_cookie_expires</td><td style="vertical-align:top;">:</td><td><div>None</div></td></tr><tr><td style="font-weight:bold;vertical-align:top;">session_data_name</td><td style="vertical-align:top;">:</td><td><div>session_data_easycommerce</div></td></tr><tr><td style="font-weight:bold;vertical-align:top;">session_file</td><td style="vertical-align:top;">:</td><td><div>&lt;open file &#x27;/Users/LC-3/Documents/CMPS183/Project/web2py/applications/EasyCommerce/sessions/1eb/1e9/127.0.0.1-ef5f595e-8fa5-4c9e-beb0-aacd9bbaeb1e&#x27;, mode &#x27;rb+&#x27; at 0x10e13cdb0&gt;</div></td></tr><tr><td style="font-weight:bold;vertical-align:top;">session_filename</td><td style="vertical-align:top;">:</td><td><div>/Users/LC-3/Documents/CMPS183/Project/web2py/applications/EasyCommerce/sessions/127.0.0.1-ef5f595e-8fa5-4c9e-beb0-aacd9bbaeb1e</div></td></tr><tr><td style="font-weight:bold;vertical-align:top;">session_hash</td><td style="vertical-align:top;">:</td><td><div>76ae5a4723ee56d76990d15393f498c2</div></td></tr><tr><td style="font-weight:bold;vertical-align:top;">session_id</td><td style="vertical-align:top;">:</td><td><div>127.0.0.1-ef5f595e-8fa5-4c9e-beb0-aacd9bbaeb1e</div></td></tr><tr><td style="font-weight:bold;vertical-align:top;">session_id_name</td><td style="vertical-align:top;">:</td><td><div>session_id_easycommerce</div></td></tr><tr><td style="font-weight:bold;vertical-align:top;">session_locked</td><td style="vertical-align:top;">:</td><td><div>True</div></td></tr><tr><td style="font-weight:bold;vertical-align:top;">session_masterapp</td><td style="vertical-align:top;">:</td><td><div>EasyCommerce</div></td></tr><tr><td style="font-weight:bold;vertical-align:top;">session_new</td><td style="vertical-align:top;">:</td><td><div>False</div></td></tr><tr><td style="font-weight:bold;vertical-align:top;">session_storage_type</td><td style="vertical-align:top;">:</td><td><div>file</div></td></tr><tr><td style="font-weight:bold;vertical-align:top;">status</td><td style="vertical-align:top;">:</td><td><div>200</div></td></tr><tr><td style="font-weight:bold;vertical-align:top;">subtitle</td><td style="vertical-align:top;">:</td><td><div></div></td></tr><tr><td style="font-weight:bold;vertical-align:top;">title</td><td style="vertical-align:top;">:</td><td><div>Easycommerce</div></td></tr><tr><td style="font-weight:bold;vertical-align:top;">view</td><td style="vertical-align:top;">:</td><td><div>default/user.html</div></td></tr></table></div>'
tRp355
sS'locals'
p356
(dp357
S'a'
S'("SELECT  auth_user.id, auth_user.first_name, auth...E (auth_user.email = \'d@a.com\') LIMIT 1 OFFSET 0;",)'
p358
sS'self'
p359
S'<pydal.adapters.sqlite.SQLiteAdapter object>'
p360
sS'b'
g21
sS'command'
p361
S'"SELECT  auth_user.id, auth_user.first_name, auth...E (auth_user.email = \'d@a.com\') LIMIT 1 OFFSET 0;"'
p362
sS't0'
p363
S'1489169250.202859'
p364
sssS'traceback'
p365
S'Traceback (most recent call last):\n  File "/Users/LC-3/Documents/CMPS183/Project/web2py/gluon/restricted.py", line 227, in restricted\n    exec ccode in environment\n  File "/Users/LC-3/Documents/CMPS183/Project/web2py/applications/EasyCommerce/controllers/default.py", line 160, in <module>\n  File "/Users/LC-3/Documents/CMPS183/Project/web2py/gluon/globals.py", line 417, in <lambda>\n    self._caller = lambda f: f()\n  File "/Users/LC-3/Documents/CMPS183/Project/web2py/applications/EasyCommerce/controllers/default.py", line 146, in user\n    return dict(form=auth())\n  File "/Users/LC-3/Documents/CMPS183/Project/web2py/gluon/tools.py", line 1941, in __call__\n    return getattr(self, args[0])()\n  File "/Users/LC-3/Documents/CMPS183/Project/web2py/gluon/tools.py", line 2963, in login\n    user = table_user(**{username: entered_username})\n  File "/Users/LC-3/Documents/CMPS183/Project/web2py/gluon/packages/dal/pydal/objects.py", line 546, in __call__\n    orderby_on_limitby=False).first()\n  File "/Users/LC-3/Documents/CMPS183/Project/web2py/gluon/packages/dal/pydal/objects.py", line 2020, in select\n    return adapter.select(self.query, fields, attributes)\n  File "/Users/LC-3/Documents/CMPS183/Project/web2py/gluon/packages/dal/pydal/adapters/sqlite.py", line 123, in select\n    return super(SQLiteAdapter, self).select(query, fields, attributes)\n  File "/Users/LC-3/Documents/CMPS183/Project/web2py/gluon/packages/dal/pydal/adapters/base.py", line 1296, in select\n    return self._select_aux(sql,fields,attributes)\n  File "/Users/LC-3/Documents/CMPS183/Project/web2py/gluon/packages/dal/pydal/adapters/base.py", line 1253, in _select_aux\n    self.execute(sql)\n  File "/Users/LC-3/Documents/CMPS183/Project/web2py/gluon/packages/dal/pydal/adapters/base.py", line 1388, in execute\n    return self.log_execute(*a, **b)\n  File "/Users/LC-3/Documents/CMPS183/Project/web2py/gluon/packages/dal/pydal/adapters/base.py", line 1382, in log_execute\n    ret = self.get_cursor().execute(command, *a[1:], **b)\nOperationalError: no such column: auth_user.User_Type\n'
p366
s.