(dp1
S'output'
p2
S"<class 'sqlite3.OperationalError'> table auth_user already exists"
p3
sS'layer'
p4
S'/Users/LC-3/Documents/CMPS183/Project/web2py/applications/EasyCommerce/models/db.py'
p5
sS'code'
p6
S'# -*- coding: utf-8 -*-\n\n\n#DAL Constructor\n\n\ndb = DAL (\'sqlite://storage.sqlite\', fake_migrate= False)\n\n\nfrom gluon.tools import Auth\nauth = Auth(db)\nauth.define_tables()\ncategories = (["Buyer", "Vendor"])\nauth.settings.extra_fields[\'auth_user\'] = [Field(\'User_Type\', requires=IS_IN_SET(categories))]\n#auth.settings.register_onaccept = __add_user_membership\n\n\n#Table Constructor -> method to define new tables.\n#Vendor_ contact info.\ndb.define_table(\'vendor_\',\n                Field(\'name\' ),\n                Field(\'email\'),\n                Field(\'phone_num\'),\n                Field(\'business_name\'),\n                Field(\'address\'),\n                Field(\'date\',\'datetime\'),\n                 format=\'%(business_name)s\')\n\n\ndb.define_table(\'user_\',\n                Field(\'name\' ),\n                Field(\'email\'),\n                Field(\'phone_num\'),\n                Field(\'payment_info\'),\n                Field(\'date\',\'datetime\'),\n                 format=\'%(name)s\')\n\n\n\ndb.define_table(\'item\',\n                Field(\'title\'),\n                Field(\'description\',\'text\'),\n                Field(\'image\',\'upload\'),\n                Field(\'price\',\'double\'),\n                Field(\'amount\',\'integer\')\n                )\n\ndb.define_table(\'invoice\',\n                Field(\'seller_id\'),\n                Field(\'customer_id\'),\n                Field(\'item_id\'),\n                Field(\'amount\'),\n                Field(\'date\',\'datetime\',default=request.now),\n                Field(\'status\',default = \'pending\')\n                )\n\ndb.define_table(\'invoice_\',\n                Field(\'seller\'),\n                Field(\'customer\'),\n                Field(\'amount\'),\n                Field(\'date\',\'datetime\',default=request.now),\n                Field(\'invoice\'),\n                Field(\'status\'))\n\ndb.define_table(\'cc\',\n                Field(\'first_name\'),\n                Field(\'last_name\'),\n                Field(\'card_number\'),\n                Field(\'security_code\'),\n                Field(\'exp_date\'))\nimport datetime\ndb.define_table(\'listing\',\n                Field(\'seller\',\'reference auth_user\', default=auth.user_id),\n                Field(\'date_added\', \'datetime\', default=datetime.datetime.utcnow(), requires=IS_DATE()),\n                Field(\'item_name\',requires=IS_NOT_EMPTY()),\n                Field(\'description\', requires=IS_NOT_EMPTY()),\n                Field(\'image\', \'upload\'),\n                Field(\'price\', \'double\'),\n                Field(\'status\', \'boolean\', default=False),\n                Field(\'category\', requires=IS_NOT_EMPTY()),\n                format=\'%(subject)s\')\n\n#Date format %m-%d-%Y %I:%M%P\ndb.listing.price.requires = IS_NOT_EMPTY(), IS_FLOAT_IN_RANGE(0, 999999999.0, dot=\'.\',error_message=\'The price should be in the range $0..999,999,999\')\ndb.listing.date_added.requires = IS_NOT_EMPTY()\ndb.listing.date_added.writable = False\ndb.listing.seller.writable = False\ndb.listing._plural = " "\n\n#User_ contact info.\n\n\n#Validations\ndb.vendor_.business_name.requires = IS_NOT_IN_DB(db, db.vendor_.business_name)\ndb.vendor_.name.requires = IS_NOT_EMPTY()\ndb.vendor_.email.requires = IS_EMAIL()\n#Regex for phone numbers validation-> (123) 234-1234.\ndb.vendor_.phone_num.requires = IS_MATCH(\'((\\(\\d{3}\\) ?)|(\\d{3}-))?\\d{3}-\\d{4}\',\n                            error_message =\'not a valid phone number.\')\ndb.vendor_.address.requires = IS_NOT_EMPTY()\n\n\ndb.user_.name.requires = IS_NOT_IN_DB(db, db.user_.name)\ndb.user_.email.requires = IS_EMAIL()\ndb.user_.phone_num.requires = IS_MATCH(\'((\\(\\d{3}\\) ?)|(\\d{3}-))?\\d{3}-\\d{4}\',\n                            error_message =\'not a valid phone number.\')\n\ndb.user_.payment_info.requires = IS_NOT_EMPTY()\ndb.invoice.status.requires = IS_IN_SET([\'pending\',\'confirmed\'])\n\n\ndb.user_.payment_info.requires = IS_NOT_EMPTY()\n###############credit card\ndb.cc.first_name.requires = IS_NOT_EMPTY()\ndb.cc.last_name.requires = IS_NOT_EMPTY()\ndb.cc.card_number.requires = IS_MATCH(\'\\d{4}\\d{4}\\d{4}\\d{4}\',\n                           error_message =\'not a valid card number.\')\ndb.cc.security_code.requires = IS_MATCH(\'\\d{3}\',\n                            error_message =\'not a valid security code.\')\ndb.cc.exp_date.requires = IS_MATCH(\'\\d{2}/\\d{2}\',\n                            error_message =\'not a valid expiration date.\')\n#user_name=False\n\ndb.user_.payment_info.requires = IS_NOT_EMPTY()\n\n\n\n#auth.settings.extra_fields[\'auth_user\']= [Field(\'phone\')]\n\nauth.settings.extra_fields[\'auth_user_\']= [Field(\'phone\')]\nauth.define_tables(username=False,signature=False,migrate =False)\n\n\nvendor_group_id = auth.add_group(\'Vendors\')\nbuyer_group_id = auth.add_group(\'Buyers\')\n\nuser_id = auth.user_id\n\ndef add_member(group_ident, user_ident):\n    auth.add_membership(group_ident, user_ident)\n\n\ndef add_membership(user_ident):\n    if (user_ident.User_Type == "Vendor"):\n        auth.add_membership(vendor_group_id, user_ident)\n    else:\n        auth.add_membership(buyer_group_id, user_ident)\n\n\n\n#auth.settings.register_onaccept = __add_user_membership\n\n'
p7
sS'snapshot'
p8
(dp9
S'exception'
p10
(dp11
S'__module__'
p12
S"'sqlite3'"
p13
sS'__getslice__'
p14
S"<method-wrapper '__getslice__' of OperationalError object>"
p15
sS'__str__'
p16
S"<method-wrapper '__str__' of OperationalError object>"
p17
sS'__reduce__'
p18
S'<built-in method __reduce__ of OperationalError object>'
p19
sS'__dict__'
p20
S'{}'
p21
sS'__sizeof__'
p22
S'<built-in method __sizeof__ of OperationalError object>'
p23
sS'__weakref__'
p24
S'None'
p25
sS'__init__'
p26
S"<method-wrapper '__init__' of OperationalError object>"
p27
sS'__setattr__'
p28
S"<method-wrapper '__setattr__' of OperationalError object>"
p29
sS'__reduce_ex__'
p30
S'<built-in method __reduce_ex__ of OperationalError object>'
p31
sS'__new__'
p32
S'<built-in method __new__ of type object>'
p33
sS'__format__'
p34
S'<built-in method __format__ of OperationalError object>'
p35
sS'__class__'
p36
S"<class 'sqlite3.OperationalError'>"
p37
sS'__doc__'
p38
S'None'
p39
sS'__getitem__'
p40
S"<method-wrapper '__getitem__' of OperationalError object>"
p41
sS'__setstate__'
p42
S'<built-in method __setstate__ of OperationalError object>'
p43
sS'__getattribute__'
p44
S"<method-wrapper '__getattribute__' of OperationalError object>"
p45
sS'args'
p46
S"('table auth_user already exists',)"
p47
sS'__subclasshook__'
p48
S'<built-in method __subclasshook__ of type object>'
p49
sS'__unicode__'
p50
S'<built-in method __unicode__ of OperationalError object>'
p51
sS'__delattr__'
p52
S"<method-wrapper '__delattr__' of OperationalError object>"
p53
sS'__repr__'
p54
S"<method-wrapper '__repr__' of OperationalError object>"
p55
sS'__hash__'
p56
S"<method-wrapper '__hash__' of OperationalError object>"
p57
ssS'evalue'
p58
S'table auth_user already exists'
p59
sS'request'
p60
cgluon.html
XML_unpickle
p61
(S's\xf7^\x00\x00<div><table><tr><td style="font-weight:bold;vertical-align:top;">ajax</td><td style="vertical-align:top;">:</td><td><div>False</div></td></tr><tr><td style="font-weight:bold;vertical-align:top;">application</td><td style="vertical-align:top;">:</td><td><div>EasyCommerce</div></td></tr><tr><td style="font-weight:bold;vertical-align:top;">args</td><td style="vertical-align:top;">:</td><td><div><table></table></div></td></tr><tr><td style="font-weight:bold;vertical-align:top;">cid</td><td style="vertical-align:top;">:</td><td><div>None</div></td></tr><tr><td style="font-weight:bold;vertical-align:top;">client</td><td style="vertical-align:top;">:</td><td><div>127.0.0.1</div></td></tr><tr><td style="font-weight:bold;vertical-align:top;">controller</td><td style="vertical-align:top;">:</td><td><div>appadmin</div></td></tr><tr><td style="font-weight:bold;vertical-align:top;">cookies</td><td style="vertical-align:top;">:</td><td><div><table><tr><td style="font-weight:bold;vertical-align:top;">session_id_admin</td><td style="vertical-align:top;">:</td><td><div>127.0.0.1-6b0e15b1-cb17-4250-af64-e3f5b1249dfc<table><tr><td style="font-weight:bold;vertical-align:top;">comment</td><td style="vertical-align:top;">:</td><td><div></div></td></tr><tr><td style="font-weight:bold;vertical-align:top;">domain</td><td style="vertical-align:top;">:</td><td><div></div></td></tr><tr><td style="font-weight:bold;vertical-align:top;">expires</td><td style="vertical-align:top;">:</td><td><div></div></td></tr><tr><td style="font-weight:bold;vertical-align:top;">httponly</td><td style="vertical-align:top;">:</td><td><div></div></td></tr><tr><td style="font-weight:bold;vertical-align:top;">max-age</td><td style="vertical-align:top;">:</td><td><div></div></td></tr><tr><td style="font-weight:bold;vertical-align:top;">path</td><td style="vertical-align:top;">:</td><td><div></div></td></tr><tr><td style="font-weight:bold;vertical-align:top;">secure</td><td style="vertical-align:top;">:</td><td><div></div></td></tr><tr><td style="font-weight:bold;vertical-align:top;">version</td><td style="vertical-align:top;">:</td><td><div></div></td></tr></table></div></td></tr><tr><td style="font-weight:bold;vertical-align:top;">session_id_easycommerce</td><td style="vertical-align:top;">:</td><td><div>127.0.0.1-c9c8e9cd-cee4-4830-8bde-35f2305b10ef<table><tr><td style="font-weight:bold;vertical-align:top;">comment</td><td style="vertical-align:top;">:</td><td><div></div></td></tr><tr><td style="font-weight:bold;vertical-align:top;">domain</td><td style="vertical-align:top;">:</td><td><div></div></td></tr><tr><td style="font-weight:bold;vertical-align:top;">expires</td><td style="vertical-align:top;">:</td><td><div></div></td></tr><tr><td style="font-weight:bold;vertical-align:top;">httponly</td><td style="vertical-align:top;">:</td><td><div></div></td></tr><tr><td style="font-weight:bold;vertical-align:top;">max-age</td><td style="vertical-align:top;">:</td><td><div></div></td></tr><tr><td style="font-weight:bold;vertical-align:top;">path</td><td style="vertical-align:top;">:</td><td><div></div></td></tr><tr><td style="font-weight:bold;vertical-align:top;">secure</td><td style="vertical-align:top;">:</td><td><div></div></td></tr><tr><td style="font-weight:bold;vertical-align:top;">version</td><td style="vertical-align:top;">:</td><td><div></div></td></tr></table></div></td></tr><tr><td style="font-weight:bold;vertical-align:top;">session_id_welcome</td><td style="vertical-align:top;">:</td><td><div>127.0.0.1-6eed0939-369b-4e02-9500-110a4ee7db41<table><tr><td style="font-weight:bold;vertical-align:top;">comment</td><td style="vertical-align:top;">:</td><td><div></div></td></tr><tr><td style="font-weight:bold;vertical-align:top;">domain</td><td style="vertical-align:top;">:</td><td><div></div></td></tr><tr><td style="font-weight:bold;vertical-align:top;">expires</td><td style="vertical-align:top;">:</td><td><div></div></td></tr><tr><td style="font-weight:bold;vertical-align:top;">httponly</td><td style="vertical-align:top;">:</td><td><div></div></td></tr><tr><td style="font-weight:bold;vertical-align:top;">max-age</td><td style="vertical-align:top;">:</td><td><div></div></td></tr><tr><td style="font-weight:bold;vertical-align:top;">path</td><td style="vertical-align:top;">:</td><td><div></div></td></tr><tr><td style="font-weight:bold;vertical-align:top;">secure</td><td style="vertical-align:top;">:</td><td><div></div></td></tr><tr><td style="font-weight:bold;vertical-align:top;">version</td><td style="vertical-align:top;">:</td><td><div></div></td></tr></table></div></td></tr></table></div></td></tr><tr><td style="font-weight:bold;vertical-align:top;">env</td><td style="vertical-align:top;">:</td><td><div><table><tr><td style="font-weight:bold;vertical-align:top;">HTTP_ACCEPT</td><td style="vertical-align:top;">:</td><td><div>text/html,application/xhtml+xml,application/xml;q=0.9,image/webp,*/*;q=0.8</div></td></tr><tr><td style="font-weight:bold;vertical-align:top;">HTTP_ACCEPT_ENCODING</td><td style="vertical-align:top;">:</td><td><div>gzip, deflate, sdch, br</div></td></tr><tr><td style="font-weight:bold;vertical-align:top;">HTTP_ACCEPT_LANGUAGE</td><td style="vertical-align:top;">:</td><td><div>en-US,en;q=0.8</div></td></tr><tr><td style="font-weight:bold;vertical-align:top;">HTTP_CACHE_CONTROL</td><td style="vertical-align:top;">:</td><td><div>max-age=0</div></td></tr><tr><td style="font-weight:bold;vertical-align:top;">HTTP_CONNECTION</td><td style="vertical-align:top;">:</td><td><div>keep-alive</div></td></tr><tr><td style="font-weight:bold;vertical-align:top;">HTTP_COOKIE</td><td style="vertical-align:top;">:</td><td><div>session_id_welcome=127.0.0.1-6eed0939-369b-4e02-9500-110a4ee7db41; session_id_easycommerce=127.0.0.1-c9c8e9cd-cee4-4830-8bde-35f2305b10ef; session_id_admin=127.0.0.1-6b0e15b1-cb17-4250-af64-e3f5b1249dfc</div></td></tr><tr><td style="font-weight:bold;vertical-align:top;">HTTP_HOST</td><td style="vertical-align:top;">:</td><td><div>127.0.0.1:8000</div></td></tr><tr><td style="font-weight:bold;vertical-align:top;">HTTP_REFERER</td><td style="vertical-align:top;">:</td><td><div>http://127.0.0.1:8000/admin/default/design/EasyCommerce</div></td></tr><tr><td style="font-weight:bold;vertical-align:top;">HTTP_UPGRADE_INSECURE_REQUESTS</td><td style="vertical-align:top;">:</td><td><div>1</div></td></tr><tr><td style="font-weight:bold;vertical-align:top;">HTTP_USER_AGENT</td><td style="vertical-align:top;">:</td><td><div>Mozilla/5.0 (Macintosh; Intel Mac OS X 10_11_4) AppleWebKit/537.36 (KHTML, like Gecko) Chrome/56.0.2924.87 Safari/537.36</div></td></tr><tr><td style="font-weight:bold;vertical-align:top;">PATH_INFO</td><td style="vertical-align:top;">:</td><td><div>/EasyCommerce/appadmin/index</div></td></tr><tr><td style="font-weight:bold;vertical-align:top;">QUERY_STRING</td><td style="vertical-align:top;">:</td><td><div></div></td></tr><tr><td style="font-weight:bold;vertical-align:top;">REMOTE_ADDR</td><td style="vertical-align:top;">:</td><td><div>127.0.0.1</div></td></tr><tr><td style="font-weight:bold;vertical-align:top;">REMOTE_PORT</td><td style="vertical-align:top;">:</td><td><div>52436</div></td></tr><tr><td style="font-weight:bold;vertical-align:top;">REQUEST_METHOD</td><td style="vertical-align:top;">:</td><td><div>GET</div></td></tr><tr><td style="font-weight:bold;vertical-align:top;">SCRIPT_NAME</td><td style="vertical-align:top;">:</td><td><div></div></td></tr><tr><td style="font-weight:bold;vertical-align:top;">SERVER_NAME</td><td style="vertical-align:top;">:</td><td><div>MacBook-Air-3.local</div></td></tr><tr><td style="font-weight:bold;vertical-align:top;">SERVER_PORT</td><td style="vertical-align:top;">:</td><td><div>8000</div></td></tr><tr><td style="font-weight:bold;vertical-align:top;">SERVER_PROTOCOL</td><td style="vertical-align:top;">:</td><td><div>HTTP/1.1</div></td></tr><tr><td style="font-weight:bold;vertical-align:top;">SERVER_SOFTWARE</td><td style="vertical-align:top;">:</td><td><div>Rocket 1.2.6</div></td></tr><tr><td style="font-weight:bold;vertical-align:top;">app_folders</td><td style="vertical-align:top;">:</td><td><div>set([&#x27;/Users/LC-3/Documents/CMPS183/Project/web2py/applications/welcome/&#x27;, &#x27;/Users/LC-3/Documents/CMPS183/Project/web2py/applications/EasyCommerce/&#x27;, &#x27;/Users/LC-3/Documents/CMPS183/Project/web2py/applications/admin/&#x27;])</div></td></tr><tr><td style="font-weight:bold;vertical-align:top;">applications_parent</td><td style="vertical-align:top;">:</td><td><div>/Users/LC-3/Documents/CMPS183/Project/web2py</div></td></tr><tr><td style="font-weight:bold;vertical-align:top;">cmd_args</td><td style="vertical-align:top;">:</td><td><div><table></table></div></td></tr><tr><td style="font-weight:bold;vertical-align:top;">cmd_options</td><td style="vertical-align:top;">:</td><td><div>&lt;Values at 0x1046938c0: {&#x27;verbose&#x27;: False, &#x27;ip&#x27;: &#x27;127.0.0.1&#x27;, &#x27;debuglevel&#x27;: 30, &#x27;with_scheduler&#x27;: False, &#x27;shutdown_timeout&#x27;: 5, &#x27;taskbar&#x27;: False, &#x27;with_coverage&#x27;: False, &#x27;pid_filename&#x27;: &#x27;httpserver.pid&#x27;, &#x27;maxthreads&#x27;: None, &#x27;softcron&#x27;: False, &#x27;server_name&#x27;: &#x27;MacBook-Air-3.local&#x27;, &#x27;bpython&#x27;: False, &#x27;nogui&#x27;: False, &#x27;port&#x27;: 8000, &#x27;print_errors&#x27;: False, &#x27;extcron&#x27;: False, &#x27;runcron&#x27;: False, &#x27;run_system_tests&#x27;: False, &#x27;test&#x27;: None, &#x27;folder&#x27;: &#x27;/Users/LC-3/Documents/CMPS183/Project/web2py&#x27;, &#x27;config&#x27;: &#x27;&#x27;, &#x27;minthreads&#x27;: None, &#x27;shell&#x27;: None, &#x27;run&#x27;: &#x27;&#x27;, &#x27;log_filename&#x27;: &#x27;httpserver.log&#x27;, &#x27;profiler_dir&#x27;: None, &#x27;args&#x27;: [&#x27;&#x27;], &#x27;socket_timeout&#x27;: 5, &#x27;ssl_ca_certificate&#x27;: None, &#x27;scheduler&#x27;: None, &#x27;interfaces&#x27;: None, &#x27;ssl_private_key&#x27;: &#x27;&#x27;, &#x27;gae&#x27;: None, &#x27;password&#x27;: &#x27;******&#x27;, &#x27;request_queue_size&#x27;: 5, &#x27;ssl_certificate&#x27;: &#x27;&#x27;, &#x27;cronjob&#x27;: False, &#x27;numthreads&#x27;: None, &#x27;quiet&#x27;: False, &#x27;import_models&#x27;: False, &#x27;timeout&#x27;: 10, &#x27;plain&#x27;: False, &#x27;nobanner&#x27;: False}&gt;</div></td></tr><tr><td style="font-weight:bold;vertical-align:top;">db_sessions</td><td style="vertical-align:top;">:</td><td><div>set([])</div></td></tr><tr><td style="font-weight:bold;vertical-align:top;">debugging</td><td style="vertical-align:top;">:</td><td><div>True</div></td></tr><tr><td style="font-weight:bold;vertical-align:top;">gluon_parent</td><td style="vertical-align:top;">:</td><td><div>/Users/LC-3/Documents/CMPS183/Project/web2py</div></td></tr><tr><td style="font-weight:bold;vertical-align:top;">http_accept</td><td style="vertical-align:top;">:</td><td><div>text/html,application/xhtml+xml,application/xml;q=0.9,image/webp,*/*;q=0.8</div></td></tr><tr><td style="font-weight:bold;vertical-align:top;">http_accept_encoding</td><td style="vertical-align:top;">:</td><td><div>gzip, deflate, sdch, br</div></td></tr><tr><td style="font-weight:bold;vertical-align:top;">http_accept_language</td><td style="vertical-align:top;">:</td><td><div>en-US,en;q=0.8</div></td></tr><tr><td style="font-weight:bold;vertical-align:top;">http_cache_control</td><td style="vertical-align:top;">:</td><td><div>max-age=0</div></td></tr><tr><td style="font-weight:bold;vertical-align:top;">http_connection</td><td style="vertical-align:top;">:</td><td><div>keep-alive</div></td></tr><tr><td style="font-weight:bold;vertical-align:top;">http_cookie</td><td style="vertical-align:top;">:</td><td><div>session_id_welcome=127.0.0.1-6eed0939-369b-4e02-9500-110a4ee7db41; session_id_easycommerce=127.0.0.1-c9c8e9cd-cee4-4830-8bde-35f2305b10ef; session_id_admin=127.0.0.1-6b0e15b1-cb17-4250-af64-e3f5b1249dfc</div></td></tr><tr><td style="font-weight:bold;vertical-align:top;">http_host</td><td style="vertical-align:top;">:</td><td><div>127.0.0.1:8000</div></td></tr><tr><td style="font-weight:bold;vertical-align:top;">http_referer</td><td style="vertical-align:top;">:</td><td><div>http://127.0.0.1:8000/admin/default/design/EasyCommerce</div></td></tr><tr><td style="font-weight:bold;vertical-align:top;">http_upgrade_insecure_requests</td><td style="vertical-align:top;">:</td><td><div>1</div></td></tr><tr><td style="font-weight:bold;vertical-align:top;">http_user_agent</td><td style="vertical-align:top;">:</td><td><div>Mozilla/5.0 (Macintosh; Intel Mac OS X 10_11_4) AppleWebKit/537.36 (KHTML, like Gecko) Chrome/56.0.2924.87 Safari/537.36</div></td></tr><tr><td style="font-weight:bold;vertical-align:top;">is_jython</td><td style="vertical-align:top;">:</td><td><div>False</div></td></tr><tr><td style="font-weight:bold;vertical-align:top;">is_pypy</td><td style="vertical-align:top;">:</td><td><div>False</div></td></tr><tr><td style="font-weight:bold;vertical-align:top;">is_source</td><td style="vertical-align:top;">:</td><td><div>True</div></td></tr><tr><td style="font-weight:bold;vertical-align:top;">local_hosts</td><td style="vertical-align:top;">:</td><td><div><table><tr><td><div>10.230.226.187</div></td></tr><tr><td><div>MacBook-Air-3.local</div></td></tr><tr><td><div>fe80::4ad7:5ff:fee7:32f7%en0</div></td></tr><tr><td><div>::1</div></td></tr><tr><td><div>::ffff:127.0.0.1</div></td></tr><tr><td><div>macbook-air-3.local</div></td></tr><tr><td><div>127.0.0.1</div></td></tr></table></div></td></tr><tr><td style="font-weight:bold;vertical-align:top;">path_info</td><td style="vertical-align:top;">:</td><td><div>/EasyCommerce/appadmin/index</div></td></tr><tr><td style="font-weight:bold;vertical-align:top;">query_string</td><td style="vertical-align:top;">:</td><td><div></div></td></tr><tr><td style="font-weight:bold;vertical-align:top;">remote_addr</td><td style="vertical-align:top;">:</td><td><div>127.0.0.1</div></td></tr><tr><td style="font-weight:bold;vertical-align:top;">remote_port</td><td style="vertical-align:top;">:</td><td><div>52436</div></td></tr><tr><td style="font-weight:bold;vertical-align:top;">request_method</td><td style="vertical-align:top;">:</td><td><div>GET</div></td></tr><tr><td style="font-weight:bold;vertical-align:top;">request_uri</td><td style="vertical-align:top;">:</td><td><div>/EasyCommerce/appadmin/index</div></td></tr><tr><td style="font-weight:bold;vertical-align:top;">script_name</td><td style="vertical-align:top;">:</td><td><div></div></td></tr><tr><td style="font-weight:bold;vertical-align:top;">server_name</td><td style="vertical-align:top;">:</td><td><div>MacBook-Air-3.local</div></td></tr><tr><td style="font-weight:bold;vertical-align:top;">server_port</td><td style="vertical-align:top;">:</td><td><div>8000</div></td></tr><tr><td style="font-weight:bold;vertical-align:top;">server_protocol</td><td style="vertical-align:top;">:</td><td><div>HTTP/1.1</div></td></tr><tr><td style="font-weight:bold;vertical-align:top;">server_software</td><td style="vertical-align:top;">:</td><td><div>Rocket 1.2.6</div></td></tr><tr><td style="font-weight:bold;vertical-align:top;">web2py_path</td><td style="vertical-align:top;">:</td><td><div>/Users/LC-3/Documents/CMPS183/Project/web2py</div></td></tr><tr><td style="font-weight:bold;vertical-align:top;">web2py_version</td><td style="vertical-align:top;">:</td><td><div>2.14.6-stable+timestamp.2016.05.10.00.21.47</div></td></tr><tr><td style="font-weight:bold;vertical-align:top;">wsgi.errors</td><td style="vertical-align:top;">:</td><td><div>&lt;open file &#x27;&lt;stderr&gt;&#x27;, mode &#x27;w&#x27; at 0x102e7f1e0&gt;</div></td></tr><tr><td style="font-weight:bold;vertical-align:top;">wsgi.file_wrapper</td><td style="vertical-align:top;">:</td><td><div>&lt;class wsgiref.util.FileWrapper at 0x104636600&gt;</div></td></tr><tr><td style="font-weight:bold;vertical-align:top;">wsgi.input</td><td style="vertical-align:top;">:</td><td><div>&lt;socket._fileobject object at 0x10a42e350&gt;</div></td></tr><tr><td style="font-weight:bold;vertical-align:top;">wsgi.multiprocess</td><td style="vertical-align:top;">:</td><td><div>False</div></td></tr><tr><td style="font-weight:bold;vertical-align:top;">wsgi.multithread</td><td style="vertical-align:top;">:</td><td><div>True</div></td></tr><tr><td style="font-weight:bold;vertical-align:top;">wsgi.run_once</td><td style="vertical-align:top;">:</td><td><div>False</div></td></tr><tr><td style="font-weight:bold;vertical-align:top;">wsgi.url_scheme</td><td style="vertical-align:top;">:</td><td><div>http</div></td></tr><tr><td style="font-weight:bold;vertical-align:top;">wsgi.version</td><td style="vertical-align:top;">:</td><td><div><table><tr><td><div>1</div></td></tr><tr><td><div>0</div></td></tr></table></div></td></tr><tr><td style="font-weight:bold;vertical-align:top;">wsgi_errors</td><td style="vertical-align:top;">:</td><td><div>&lt;open file &#x27;&lt;stderr&gt;&#x27;, mode &#x27;w&#x27; at 0x102e7f1e0&gt;</div></td></tr><tr><td style="font-weight:bold;vertical-align:top;">wsgi_file_wrapper</td><td style="vertical-align:top;">:</td><td><div>&lt;class wsgiref.util.FileWrapper at 0x104636600&gt;</div></td></tr><tr><td style="font-weight:bold;vertical-align:top;">wsgi_input</td><td style="vertical-align:top;">:</td><td><div>&lt;socket._fileobject object at 0x10a42e350&gt;</div></td></tr><tr><td style="font-weight:bold;vertical-align:top;">wsgi_multiprocess</td><td style="vertical-align:top;">:</td><td><div>False</div></td></tr><tr><td style="font-weight:bold;vertical-align:top;">wsgi_multithread</td><td style="vertical-align:top;">:</td><td><div>True</div></td></tr><tr><td style="font-weight:bold;vertical-align:top;">wsgi_run_once</td><td style="vertical-align:top;">:</td><td><div>False</div></td></tr><tr><td style="font-weight:bold;vertical-align:top;">wsgi_url_scheme</td><td style="vertical-align:top;">:</td><td><div>http</div></td></tr><tr><td style="font-weight:bold;vertical-align:top;">wsgi_version</td><td style="vertical-align:top;">:</td><td><div><table><tr><td><div>1</div></td></tr><tr><td><div>0</div></td></tr></table></div></td></tr></table></div></td></tr><tr><td style="font-weight:bold;vertical-align:top;">extension</td><td style="vertical-align:top;">:</td><td><div>html</div></td></tr><tr><td style="font-weight:bold;vertical-align:top;">folder</td><td style="vertical-align:top;">:</td><td><div>/Users/LC-3/Documents/CMPS183/Project/web2py/applications/EasyCommerce/</div></td></tr><tr><td style="font-weight:bold;vertical-align:top;">function</td><td style="vertical-align:top;">:</td><td><div>index</div></td></tr><tr><td style="font-weight:bold;vertical-align:top;">global_settings</td><td style="vertical-align:top;">:</td><td><div><table><tr><td style="font-weight:bold;vertical-align:top;">app_folders</td><td style="vertical-align:top;">:</td><td><div>set([&#x27;/Users/LC-3/Documents/CMPS183/Project/web2py/applications/welcome/&#x27;, &#x27;/Users/LC-3/Documents/CMPS183/Project/web2py/applications/EasyCommerce/&#x27;, &#x27;/Users/LC-3/Documents/CMPS183/Project/web2py/applications/admin/&#x27;])</div></td></tr><tr><td style="font-weight:bold;vertical-align:top;">applications_parent</td><td style="vertical-align:top;">:</td><td><div>/Users/LC-3/Documents/CMPS183/Project/web2py</div></td></tr><tr><td style="font-weight:bold;vertical-align:top;">cmd_args</td><td style="vertical-align:top;">:</td><td><div><table></table></div></td></tr><tr><td style="font-weight:bold;vertical-align:top;">cmd_options</td><td style="vertical-align:top;">:</td><td><div>&lt;Values at 0x1046938c0: {&#x27;verbose&#x27;: False, &#x27;ip&#x27;: &#x27;127.0.0.1&#x27;, &#x27;debuglevel&#x27;: 30, &#x27;with_scheduler&#x27;: False, &#x27;shutdown_timeout&#x27;: 5, &#x27;taskbar&#x27;: False, &#x27;with_coverage&#x27;: False, &#x27;pid_filename&#x27;: &#x27;httpserver.pid&#x27;, &#x27;maxthreads&#x27;: None, &#x27;softcron&#x27;: False, &#x27;server_name&#x27;: &#x27;MacBook-Air-3.local&#x27;, &#x27;bpython&#x27;: False, &#x27;nogui&#x27;: False, &#x27;port&#x27;: 8000, &#x27;print_errors&#x27;: False, &#x27;extcron&#x27;: False, &#x27;runcron&#x27;: False, &#x27;run_system_tests&#x27;: False, &#x27;test&#x27;: None, &#x27;folder&#x27;: &#x27;/Users/LC-3/Documents/CMPS183/Project/web2py&#x27;, &#x27;config&#x27;: &#x27;&#x27;, &#x27;minthreads&#x27;: None, &#x27;shell&#x27;: None, &#x27;run&#x27;: &#x27;&#x27;, &#x27;log_filename&#x27;: &#x27;httpserver.log&#x27;, &#x27;profiler_dir&#x27;: None, &#x27;args&#x27;: [&#x27;&#x27;], &#x27;socket_timeout&#x27;: 5, &#x27;ssl_ca_certificate&#x27;: None, &#x27;scheduler&#x27;: None, &#x27;interfaces&#x27;: None, &#x27;ssl_private_key&#x27;: &#x27;&#x27;, &#x27;gae&#x27;: None, &#x27;password&#x27;: &#x27;******&#x27;, &#x27;request_queue_size&#x27;: 5, &#x27;ssl_certificate&#x27;: &#x27;&#x27;, &#x27;cronjob&#x27;: False, &#x27;numthreads&#x27;: None, &#x27;quiet&#x27;: False, &#x27;import_models&#x27;: False, &#x27;timeout&#x27;: 10, &#x27;plain&#x27;: False, &#x27;nobanner&#x27;: False}&gt;</div></td></tr><tr><td style="font-weight:bold;vertical-align:top;">db_sessions</td><td style="vertical-align:top;">:</td><td><div>set([])</div></td></tr><tr><td style="font-weight:bold;vertical-align:top;">debugging</td><td style="vertical-align:top;">:</td><td><div>True</div></td></tr><tr><td style="font-weight:bold;vertical-align:top;">gluon_parent</td><td style="vertical-align:top;">:</td><td><div>/Users/LC-3/Documents/CMPS183/Project/web2py</div></td></tr><tr><td style="font-weight:bold;vertical-align:top;">is_jython</td><td style="vertical-align:top;">:</td><td><div>False</div></td></tr><tr><td style="font-weight:bold;vertical-align:top;">is_pypy</td><td style="vertical-align:top;">:</td><td><div>False</div></td></tr><tr><td style="font-weight:bold;vertical-align:top;">is_source</td><td style="vertical-align:top;">:</td><td><div>True</div></td></tr><tr><td style="font-weight:bold;vertical-align:top;">local_hosts</td><td style="vertical-align:top;">:</td><td><div><table><tr><td><div>10.230.226.187</div></td></tr><tr><td><div>MacBook-Air-3.local</div></td></tr><tr><td><div>fe80::4ad7:5ff:fee7:32f7%en0</div></td></tr><tr><td><div>::1</div></td></tr><tr><td><div>::ffff:127.0.0.1</div></td></tr><tr><td><div>macbook-air-3.local</div></td></tr><tr><td><div>127.0.0.1</div></td></tr></table></div></td></tr><tr><td style="font-weight:bold;vertical-align:top;">web2py_version</td><td style="vertical-align:top;">:</td><td><div>2.14.6-stable+timestamp.2016.05.10.00.21.47</div></td></tr></table></div></td></tr><tr><td style="font-weight:bold;vertical-align:top;">is_https</td><td style="vertical-align:top;">:</td><td><div>False</div></td></tr><tr><td style="font-weight:bold;vertical-align:top;">is_local</td><td style="vertical-align:top;">:</td><td><div>True</div></td></tr><tr><td style="font-weight:bold;vertical-align:top;">is_restful</td><td style="vertical-align:top;">:</td><td><div>False</div></td></tr><tr><td style="font-weight:bold;vertical-align:top;">is_scheduler</td><td style="vertical-align:top;">:</td><td><div>False</div></td></tr><tr><td style="font-weight:bold;vertical-align:top;">is_shell</td><td style="vertical-align:top;">:</td><td><div>False</div></td></tr><tr><td style="font-weight:bold;vertical-align:top;">now</td><td style="vertical-align:top;">:</td><td><div>datetime.datetime(2017, 3, 10, 21, 35, 42, 405648)</div></td></tr><tr><td style="font-weight:bold;vertical-align:top;">raw_args</td><td style="vertical-align:top;">:</td><td><div></div></td></tr><tr><td style="font-weight:bold;vertical-align:top;">raw_extension</td><td style="vertical-align:top;">:</td><td><div>None</div></td></tr><tr><td style="font-weight:bold;vertical-align:top;">url</td><td style="vertical-align:top;">:</td><td><div>/EasyCommerce/appadmin/index</div></td></tr><tr><td style="font-weight:bold;vertical-align:top;">utcnow</td><td style="vertical-align:top;">:</td><td><div>datetime.datetime(2017, 3, 11, 5, 35, 42, 405655)</div></td></tr><tr><td style="font-weight:bold;vertical-align:top;">wsgi</td><td style="vertical-align:top;">:</td><td><div>&lt;gluon.main.LazyWSGI object at 0x109e13a10&gt;</div></td></tr></table></div>'
tRp62
sS'frames'
p63
(lp64
(dp65
S'file'
p66
S'/Users/LC-3/Documents/CMPS183/Project/web2py/gluon/restricted.py'
p67
sS'dump'
p68
(dp69
S'environment'
p70
S"{'A': <class 'gluon.html.A'>, 'ANY_OF': <class 'gluon.validators.ANY_OF'>, 'ASSIGNJS': <function ASSIGNJS>, 'Auth': <class 'gluon.tools.Auth'>, 'B': <class 'gluon.html.B'>, 'BEAUTIFY': <class 'gluon.html.BEAUTIFY'>, 'BODY': <class 'gluon.html.BODY'>, 'BR': <class 'gluon.html.BR'>, 'BUTTON': <class 'gluon.html.BUTTON'>, 'CAT': <class 'gluon.html.CAT'>, ...}"
p71
sS'ccode'
p72
S'<code object <module> at 0x10a42e7b0, file "/Use.../applications/EasyCommerce/models/db.py", line 7>'
p73
ssS'lnum'
p74
I227
sS'lines'
p75
(dp76
I224
S'            ccode = code'
p77
sI225
S'        else:'
p78
sI226
S'            ccode = compile2(code, layer)'
p79
sI227
S'        exec ccode in environment'
p80
sI228
S'    except HTTP:'
p81
sI229
S'        raise'
p82
sI230
S'    except RestrictedError:'
p83
sI231
S'        # do not encapsulate (obfuscate) the original RestrictedError'
p84
sI222
S'    try:'
p85
sI223
S'        if isinstance(code, types.CodeType):'
p86
ssS'call'
p87
S"(code='# -*- coding: utf-8 -*-\\n\\n\\n#DAL Constructor\\n\\n\\ndb ...tings.register_onaccept = __add_user_membership\\n\\n', environment={'A': <class 'gluon.html.A'>, 'ANY_OF': <class 'gluon.validators.ANY_OF'>, 'ASSIGNJS': <function ASSIGNJS>, 'Auth': <class 'gluon.tools.Auth'>, 'B': <class 'gluon.html.B'>, 'BEAUTIFY': <class 'gluon.html.BEAUTIFY'>, 'BODY': <class 'gluon.html.BODY'>, 'BR': <class 'gluon.html.BR'>, 'BUTTON': <class 'gluon.html.BUTTON'>, 'CAT': <class 'gluon.html.CAT'>, ...}, layer='/Users/LC-3/Documents/CMPS183/Project/web2py/applications/EasyCommerce/models/db.py')"
p88
sS'func'
p89
S'restricted'
p90
sa(dp91
g66
S'/Users/LC-3/Documents/CMPS183/Project/web2py/applications/EasyCommerce/models/db.py'
p92
sg68
(dp93
S'auth.define_tables'
p94
S'<bound method Auth.define_tables of <gluon.tools.Auth object>>'
p95
sS'auth'
p96
S'<gluon.tools.Auth object>'
p97
ssg74
I12
sg75
(dp98
I7
S"db = DAL ('sqlite://storage.sqlite', fake_migrate= False)"
p99
sI8
S''
sI9
S''
sI10
S'from gluon.tools import Auth'
p100
sI11
S'auth = Auth(db)'
p101
sI12
S'auth.define_tables()'
p102
sI13
S'categories = (["Buyer", "Vendor"])'
p103
sI14
S"auth.settings.extra_fields['auth_user'] = [Field('User_Type', requires=IS_IN_SET(categories))]"
p104
sI15
S'#auth.settings.register_onaccept = __add_user_membership'
p105
sI16
S''
ssg87
S'()'
p106
sg89
S'<module>'
p107
sa(dp108
g66
S'/Users/LC-3/Documents/CMPS183/Project/web2py/gluon/tools.py'
p109
sg68
(dp110
S'builtinformat'
p111
S'<built-in function format>'
p112
ssg74
I2376
sg75
(dp113
I2371
S'                    *extra_fields,'
p114
sI2372
S'                    **dict('
p115
sI2373
S'                        migrate=self.__get_migrate(settings.table_user_name,'
p116
sI2374
S'                                                   migrate),'
p117
sI2375
S'                        fake_migrate=fake_migrate,'
p118
sI2376
S"                        format='%(first_name)s %(last_name)s (%(id)s)'))"
p119
sI2377
S"        reference_table_user = 'reference %s' % settings.table_user_name"
p120
sI2378
S'        if settings.table_group_name not in db.tables:'
p121
sI2379
S'            extra_fields = settings.extra_fields.get('
p122
sI2380
S'                settings.table_group_name, []) + signature_list'
p123
ssg87
S'(self=<gluon.tools.Auth object>, username=False, signature=None, enable_tokens=False, migrate=True, fake_migrate=False)'
p124
sg89
S'define_tables'
p125
sa(dp126
g66
S'/Users/LC-3/Documents/CMPS183/Project/web2py/gluon/packages/dal/pydal/base.py'
p127
sg68
(dp128
S'fields'
p129
S'(<pydal.objects.Field object>, <pydal.objects.Field object>, <pydal.objects.Field object>, <pydal.objects.Field object>, <pydal.objects.Field object>, <pydal.objects.Field object>, <pydal.objects.Field object>)'
p130
sS'self'
p131
S'<DAL uri="sqlite://storage.sqlite">'
p132
sS'args'
p133
S"{'fake_migrate': False, 'format': '%(first_name)s %(last_name)s (%(id)s)', 'migrate': True}"
p134
sS'tablename'
p135
S"'auth_user'"
p136
sS'table'
p137
S'undefined'
p138
sS'self.lazy_define_table'
p139
S'<bound method DAL.lazy_define_table of <DAL uri="sqlite://storage.sqlite">>'
p140
ssg74
I834
sg75
(dp141
I832
S'            table = None'
p142
sI833
S'        else:'
p143
sI834
S'            table = self.lazy_define_table(tablename,*fields,**args)'
p144
sI835
S'        if not tablename in self.tables:'
p145
sI836
S'            self.tables.append(tablename)'
p146
sI837
S'        return table'
p147
sI838
S''
sI829
S'                    % (tablename,invalid_args))'
p148
sI830
S'        if self._lazy_tables and tablename not in self._LAZY_TABLES:'
p149
sI831
S'            self._LAZY_TABLES[tablename] = (tablename,fields,args)'
p150
ssg87
S'(self=<DAL uri="sqlite://storage.sqlite">, tablename=\'auth_user\', *fields=(<pydal.objects.Field object>, <pydal.objects.Field object>, <pydal.objects.Field object>, <pydal.objects.Field object>, <pydal.objects.Field object>, <pydal.objects.Field object>, <pydal.objects.Field object>), **args={\'fake_migrate\': False, \'format\': \'%(first_name)s %(last_name)s (%(id)s)\', \'migrate\': True})'
p151
sg89
S'define_table'
p152
sa(dp153
g66
S'/Users/LC-3/Documents/CMPS183/Project/web2py/gluon/packages/dal/pydal/base.py'
p154
sg68
(dp155
S'polymodel'
p156
S'None'
p157
ssg74
I873
sg75
(dp158
I868
S'            try:'
p159
sI869
S'                GLOBAL_LOCKER.acquire()'
p160
sI870
S'                self._lastsql = self._adapter.create_table('
p161
sI871
S'                    table,migrate=migrate,'
p162
sI872
S'                    fake_migrate=fake_migrate,'
p163
sI873
S'                    polymodel=polymodel)'
p164
sI874
S'            finally:'
p165
sI875
S'                GLOBAL_LOCKER.release()'
p166
sI876
S'        else:'
p167
sI877
S'            table._dbt = None'
p168
ssg87
S'(self=<DAL uri="sqlite://storage.sqlite">, tablename=\'auth_user\', *fields=(<pydal.objects.Field object>, <pydal.objects.Field object>, <pydal.objects.Field object>, <pydal.objects.Field object>, <pydal.objects.Field object>, <pydal.objects.Field object>, <pydal.objects.Field object>), **args={\'fake_migrate\': False, \'format\': \'%(first_name)s %(last_name)s (%(id)s)\', \'migrate\': True})'
p169
sg89
S'lazy_define_table'
p170
sa(dp171
g66
S'/Users/LC-3/Documents/CMPS183/Project/web2py/gluon/packages/dal/pydal/adapters/base.py'
p172
sg68
(dp173
S'query'
p174
S"'CREATE TABLE auth_user(\\n    id INTEGER PRIMARY K...d_key CHAR(512),\\n    registration_id CHAR(512)\\n);'"
p175
sS'self'
p176
S'<pydal.adapters.sqlite.SQLiteAdapter object>'
p177
sS'table'
p178
S'<Table auth_user (id, first_name, last_name, ema...ration_key, reset_password_key, registration_id)>'
p179
sS'self.create_sequence_and_triggers'
p180
S'<bound method SQLiteAdapter.create_sequence_and_... of <pydal.adapters.sqlite.SQLiteAdapter object>>'
p181
ssg74
I482
sg75
(dp182
I480
S'                            query), table)'
p183
sI481
S'            if not fake_migrate:'
p184
sI482
S'                self.create_sequence_and_triggers(query, table)'
p185
sI483
S'                db.commit()'
p186
sI484
S'                # Postgres geom fields are added now,'
p187
sI485
S'                # after the table has been created'
p188
sI486
S'                for query in postcreation_fields:'
p189
sI477
S'            if table._dbt:'
p190
sI478
S"                self.log('timestamp: %s\\n%s\\n'"
p191
sI479
S'                         % (datetime.datetime.today().isoformat(),'
p192
ssg87
S'(self=<pydal.adapters.sqlite.SQLiteAdapter object>, table=<Table auth_user (id, first_name, last_name, ema...ration_key, reset_password_key, registration_id)>, migrate=True, fake_migrate=False, polymodel=None)'
p193
sg89
S'create_table'
p194
sa(dp195
g66
S'/Users/LC-3/Documents/CMPS183/Project/web2py/gluon/packages/dal/pydal/adapters/base.py'
p196
sg68
(dp197
S'query'
p198
S"'CREATE TABLE auth_user(\\n    id INTEGER PRIMARY K...d_key CHAR(512),\\n    registration_id CHAR(512)\\n);'"
p199
sS'self'
p200
S'<pydal.adapters.sqlite.SQLiteAdapter object>'
p201
sS'self.execute'
p202
S'<bound method SQLiteAdapter.execute of <pydal.adapters.sqlite.SQLiteAdapter object>>'
p203
ssg74
I1369
sg75
(dp204
I1364
S''
sI1365
S'    def constraint_name(self, table, fieldname):'
p205
sI1366
S"        return '%s_%s__constraint' % (table,fieldname)"
p206
sI1367
S''
sI1368
S'    def create_sequence_and_triggers(self, query, table, **args):'
p207
sI1369
S'        self.execute(query)'
p208
sI1370
S''
sI1371
S''
sI1372
S'    def log_execute(self, *a, **b):'
p209
sI1373
S'        if not self.connection: raise ValueError(a[0])'
p210
ssg87
S"(self=<pydal.adapters.sqlite.SQLiteAdapter object>, query='CREATE TABLE auth_user(\\n    id INTEGER PRIMARY K...d_key CHAR(512),\\n    registration_id CHAR(512)\\n);', table=<Table auth_user (id, first_name, last_name, ema...ration_key, reset_password_key, registration_id)>, **args={})"
p211
sg89
S'create_sequence_and_triggers'
p212
sa(dp213
g66
S'/Users/LC-3/Documents/CMPS183/Project/web2py/gluon/packages/dal/pydal/adapters/base.py'
p214
sg68
(dp215
S'a'
S"('CREATE TABLE auth_user(\\n    id INTEGER PRIMARY K...d_key CHAR(512),\\n    registration_id CHAR(512)\\n);',)"
p216
sS'self'
p217
S'<pydal.adapters.sqlite.SQLiteAdapter object>'
p218
sS'b'
g21
sS'self.log_execute'
p219
S'<bound method SQLiteAdapter.log_execute of <pydal.adapters.sqlite.SQLiteAdapter object>>'
p220
ssg74
I1388
sg75
(dp221
I1383
S'        self.db._timings.append((command,time.time()-t0))'
p222
sI1384
S'        del self.db._timings[:-TIMINGSSIZE]'
p223
sI1385
S'        return ret'
p224
sI1386
S''
sI1387
S'    def execute(self, *a, **b):'
p225
sI1388
S'        return self.log_execute(*a, **b)'
p226
sI1389
S''
sI1390
S'    def execute_test_query(self):'
p227
sI1391
S'        return self.execute(self.test_query)'
p228
sI1392
S''
ssg87
S"(self=<pydal.adapters.sqlite.SQLiteAdapter object>, *a=('CREATE TABLE auth_user(\\n    id INTEGER PRIMARY K...d_key CHAR(512),\\n    registration_id CHAR(512)\\n);',), **b={})"
p229
sg89
S'execute'
p230
sa(dp231
g66
S'/Users/LC-3/Documents/CMPS183/Project/web2py/gluon/packages/dal/pydal/adapters/base.py'
p232
sg68
(dp233
S'a'
S"('CREATE TABLE auth_user(\\n    id INTEGER PRIMARY K...d_key CHAR(512),\\n    registration_id CHAR(512)\\n);',)"
p234
sS'b'
g21
sS'self'
p235
S'<pydal.adapters.sqlite.SQLiteAdapter object>'
p236
sS'ret'
p237
g138
sS'command'
p238
S"'CREATE TABLE auth_user(\\n    id INTEGER PRIMARY K...d_key CHAR(512),\\n    registration_id CHAR(512)\\n);'"
p239
sS'self.get_cursor'
p240
S'<bound method SQLiteAdapter.get_cursor of <pydal.adapters.sqlite.SQLiteAdapter object>>'
p241
sS').execute'
p242
g138
ssg74
I1382
sg75
(dp243
I1377
S'            command = self.filter_sql_command(command)'
p244
sI1378
S'        if self.db._debug:'
p245
sI1379
S"            self.db.logger.debug('SQL: %s' % command)"
p246
sI1380
S'        self.db._lastsql = command'
p247
sI1381
S'        t0 = time.time()'
p248
sI1382
S'        ret = self.get_cursor().execute(command, *a[1:], **b)'
p249
sI1383
S'        self.db._timings.append((command,time.time()-t0))'
p250
sI1384
S'        del self.db._timings[:-TIMINGSSIZE]'
p251
sI1385
S'        return ret'
p252
sI1386
S''
ssg87
S"(self=<pydal.adapters.sqlite.SQLiteAdapter object>, *a=('CREATE TABLE auth_user(\\n    id INTEGER PRIMARY K...d_key CHAR(512),\\n    registration_id CHAR(512)\\n);',), **b={})"
p253
sg89
S'log_execute'
p254
sasS'pyver'
p255
S'Python 2.7.10: /System/Library/Frameworks/Python.framework/Versions/2.7/Resources/Python.app/Contents/MacOS/Python (prefix: /System/Library/Frameworks/Python.framework/Versions/2.7)'
p256
sS'session'
p257
g61
(S's\xba\x01\x00\x00<div><table><tr><td style="font-weight:bold;vertical-align:top;">flash</td><td style="vertical-align:top;">:</td><td><div>None</div></td></tr><tr><td style="font-weight:bold;vertical-align:top;">last_orderby</td><td style="vertical-align:top;">:</td><td><div>None</div></td></tr><tr><td style="font-weight:bold;vertical-align:top;">last_query</td><td style="vertical-align:top;">:</td><td><div>db.listing.id&gt;0</div></td></tr></table></div>'
tRp258
sS'etype'
p259
S"<class 'sqlite3.OperationalError'>"
p260
sS'date'
p261
S'Fri Mar 10 21:35:42 2017'
p262
sS'response'
p263
g61
(S's\xac\x17\x00\x00<div><table><tr><td style="font-weight:bold;vertical-align:top;">body</td><td style="vertical-align:top;">:</td><td><div>&lt;cStringIO.StringO object at 0x10956d7d8&gt;</div></td></tr><tr><td style="font-weight:bold;vertical-align:top;">cookies</td><td style="vertical-align:top;">:</td><td><div><table><tr><td style="font-weight:bold;vertical-align:top;">session_id_easycommerce</td><td style="vertical-align:top;">:</td><td><div>127.0.0.1-c9c8e9cd-cee4-4830-8bde-35f2305b10ef<table><tr><td style="font-weight:bold;vertical-align:top;">comment</td><td style="vertical-align:top;">:</td><td><div></div></td></tr><tr><td style="font-weight:bold;vertical-align:top;">domain</td><td style="vertical-align:top;">:</td><td><div></div></td></tr><tr><td style="font-weight:bold;vertical-align:top;">expires</td><td style="vertical-align:top;">:</td><td><div></div></td></tr><tr><td style="font-weight:bold;vertical-align:top;">httponly</td><td style="vertical-align:top;">:</td><td><div></div></td></tr><tr><td style="font-weight:bold;vertical-align:top;">max-age</td><td style="vertical-align:top;">:</td><td><div></div></td></tr><tr><td style="font-weight:bold;vertical-align:top;">path</td><td style="vertical-align:top;">:</td><td><div>/</div></td></tr><tr><td style="font-weight:bold;vertical-align:top;">secure</td><td style="vertical-align:top;">:</td><td><div></div></td></tr><tr><td style="font-weight:bold;vertical-align:top;">version</td><td style="vertical-align:top;">:</td><td><div></div></td></tr></table></div></td></tr></table></div></td></tr><tr><td style="font-weight:bold;vertical-align:top;">delimiters</td><td style="vertical-align:top;">:</td><td><div><table><tr><td><div>{{</div></td></tr><tr><td><div>}}</div></td></tr></table></div></td></tr><tr><td style="font-weight:bold;vertical-align:top;">files</td><td style="vertical-align:top;">:</td><td><div><table></table></div></td></tr><tr><td style="font-weight:bold;vertical-align:top;">flash</td><td style="vertical-align:top;">:</td><td><div></div></td></tr><tr><td style="font-weight:bold;vertical-align:top;">form_label_separator</td><td style="vertical-align:top;">:</td><td><div>: </div></td></tr><tr><td style="font-weight:bold;vertical-align:top;">formstyle</td><td style="vertical-align:top;">:</td><td><div>table3cols</div></td></tr><tr><td style="font-weight:bold;vertical-align:top;">generic_patterns</td><td style="vertical-align:top;">:</td><td><div><table><tr><td><div>*</div></td></tr></table></div></td></tr><tr><td style="font-weight:bold;vertical-align:top;">headers</td><td style="vertical-align:top;">:</td><td><div><table><tr><td style="font-weight:bold;vertical-align:top;">X-Powered-By</td><td style="vertical-align:top;">:</td><td><div>web2py</div></td></tr></table></div></td></tr><tr><td style="font-weight:bold;vertical-align:top;">menu</td><td style="vertical-align:top;">:</td><td><div><table></table></div></td></tr><tr><td style="font-weight:bold;vertical-align:top;">meta</td><td style="vertical-align:top;">:</td><td><div><table></table></div></td></tr><tr><td style="font-weight:bold;vertical-align:top;">models_to_run</td><td style="vertical-align:top;">:</td><td><div><table><tr><td><div>^\\w+\\.py$</div></td></tr><tr><td><div>^appadmin/\\w+\\.py$</div></td></tr><tr><td><div>^appadmin/index/\\w+\\.py$</div></td></tr></table></div></td></tr><tr><td style="font-weight:bold;vertical-align:top;">postprocessing</td><td style="vertical-align:top;">:</td><td><div><table></table></div></td></tr><tr><td style="font-weight:bold;vertical-align:top;">session_client</td><td style="vertical-align:top;">:</td><td><div>127.0.0.1</div></td></tr><tr><td style="font-weight:bold;vertical-align:top;">session_cookie_compression_level</td><td style="vertical-align:top;">:</td><td><div>None</div></td></tr><tr><td style="font-weight:bold;vertical-align:top;">session_cookie_expires</td><td style="vertical-align:top;">:</td><td><div>None</div></td></tr><tr><td style="font-weight:bold;vertical-align:top;">session_data_name</td><td style="vertical-align:top;">:</td><td><div>session_data_easycommerce</div></td></tr><tr><td style="font-weight:bold;vertical-align:top;">session_file</td><td style="vertical-align:top;">:</td><td><div>&lt;open file &#x27;/Users/LC-3/Documents/CMPS183/Project/web2py/applications/EasyCommerce/sessions/194/083/127.0.0.1-c9c8e9cd-cee4-4830-8bde-35f2305b10ef&#x27;, mode &#x27;rb+&#x27; at 0x10a3c88a0&gt;</div></td></tr><tr><td style="font-weight:bold;vertical-align:top;">session_filename</td><td style="vertical-align:top;">:</td><td><div>/Users/LC-3/Documents/CMPS183/Project/web2py/applications/EasyCommerce/sessions/127.0.0.1-c9c8e9cd-cee4-4830-8bde-35f2305b10ef</div></td></tr><tr><td style="font-weight:bold;vertical-align:top;">session_hash</td><td style="vertical-align:top;">:</td><td><div>92881be8360d3dd6891c723536633683</div></td></tr><tr><td style="font-weight:bold;vertical-align:top;">session_id</td><td style="vertical-align:top;">:</td><td><div>127.0.0.1-c9c8e9cd-cee4-4830-8bde-35f2305b10ef</div></td></tr><tr><td style="font-weight:bold;vertical-align:top;">session_id_name</td><td style="vertical-align:top;">:</td><td><div>session_id_easycommerce</div></td></tr><tr><td style="font-weight:bold;vertical-align:top;">session_locked</td><td style="vertical-align:top;">:</td><td><div>True</div></td></tr><tr><td style="font-weight:bold;vertical-align:top;">session_masterapp</td><td style="vertical-align:top;">:</td><td><div>EasyCommerce</div></td></tr><tr><td style="font-weight:bold;vertical-align:top;">session_new</td><td style="vertical-align:top;">:</td><td><div>False</div></td></tr><tr><td style="font-weight:bold;vertical-align:top;">session_storage_type</td><td style="vertical-align:top;">:</td><td><div>file</div></td></tr><tr><td style="font-weight:bold;vertical-align:top;">status</td><td style="vertical-align:top;">:</td><td><div>200</div></td></tr><tr><td style="font-weight:bold;vertical-align:top;">view</td><td style="vertical-align:top;">:</td><td><div>appadmin/index.html</div></td></tr></table></div>'
tRp264
sS'locals'
p265
(dp266
S'a'
S"('CREATE TABLE auth_user(\\n    id INTEGER PRIMARY K...d_key CHAR(512),\\n    registration_id CHAR(512)\\n);',)"
p267
sS'self'
p268
S'<pydal.adapters.sqlite.SQLiteAdapter object>'
p269
sS'b'
g21
sS'command'
p270
S"'CREATE TABLE auth_user(\\n    id INTEGER PRIMARY K...d_key CHAR(512),\\n    registration_id CHAR(512)\\n);'"
p271
sS't0'
p272
S'1489210542.430384'
p273
sssS'traceback'
p274
S'Traceback (most recent call last):\n  File "/Users/LC-3/Documents/CMPS183/Project/web2py/gluon/restricted.py", line 227, in restricted\n    exec ccode in environment\n  File "/Users/LC-3/Documents/CMPS183/Project/web2py/applications/EasyCommerce/models/db.py", line 12, in <module>\n    auth.define_tables()\n  File "/Users/LC-3/Documents/CMPS183/Project/web2py/gluon/tools.py", line 2376, in define_tables\n    format=\'%(first_name)s %(last_name)s (%(id)s)\'))\n  File "/Users/LC-3/Documents/CMPS183/Project/web2py/gluon/packages/dal/pydal/base.py", line 834, in define_table\n    table = self.lazy_define_table(tablename,*fields,**args)\n  File "/Users/LC-3/Documents/CMPS183/Project/web2py/gluon/packages/dal/pydal/base.py", line 873, in lazy_define_table\n    polymodel=polymodel)\n  File "/Users/LC-3/Documents/CMPS183/Project/web2py/gluon/packages/dal/pydal/adapters/base.py", line 482, in create_table\n    self.create_sequence_and_triggers(query, table)\n  File "/Users/LC-3/Documents/CMPS183/Project/web2py/gluon/packages/dal/pydal/adapters/base.py", line 1369, in create_sequence_and_triggers\n    self.execute(query)\n  File "/Users/LC-3/Documents/CMPS183/Project/web2py/gluon/packages/dal/pydal/adapters/base.py", line 1388, in execute\n    return self.log_execute(*a, **b)\n  File "/Users/LC-3/Documents/CMPS183/Project/web2py/gluon/packages/dal/pydal/adapters/base.py", line 1382, in log_execute\n    ret = self.get_cursor().execute(command, *a[1:], **b)\nOperationalError: table auth_user already exists\n'
p275
s.