(dp1
S'output'
p2
S"<type 'exceptions.AttributeError'> 'list' object has no attribute 'readable'"
p3
sS'layer'
p4
S'C:\\Users\\lvr20\\PycharmProjects\\EasyCommerce\\web2py\\applications\\EasyCommerce\\models\\db.py'
p5
sS'code'
p6
S"# -*- coding: utf-8 -*-\n#DAL Constructor\ndb = DAL ('sqlite://storage.sqlite',migrate = False)\n\n\nfrom gluon.tools import Auth\nauth = Auth(db)\nauth.define_tables()\n\nimport datetime\n\n#Vendor_ DB ------------------\ndb.define_table('vendor_',\n                Field('name' ),\n                Field('vendor_id', 'reference auth_user', default=auth.user_id),\n                Field('email'),\n                Field('phone_num'),\n                Field('business_name'),\n                Field('address'),\n                Field('date','datetime',default=request.now),\n                format='%(business_name)s')\n\n#User_ DB ------------------\ndb.define_table('user_',\n                Field('name' ),\n                Field('email'),\n                Field('phone_num'),\n                Field('payment_info'),\n                Field('date','datetime',default=request.now),\n                Field('user_id', 'reference auth_user', default=auth.user_id),\n                format='%(name)s')\n\n#Item DB ------------------\nItem = db.define_table('item',\n                Field('seller','reference auth_user', default=auth.user_id),\n                Field('date_added', 'datetime', default=datetime.datetime.utcnow(), requires=IS_DATE()),\n                Field('item_name',requires=IS_NOT_EMPTY()),\n                Field('description', requires=IS_NOT_EMPTY()),\n                Field('image', 'upload'),\n                Field('thumbnail', 'upload'),\n                Field('price', 'double'),\n                Field('status', 'boolean', default=False),\n                Field('category', requires=IS_NOT_EMPTY()),\n                format='%(subject)s')\n\n#Invoice DB ------------------\ndb.define_table('invoice',\n                Field('seller_id'),\n                Field('customer_id'),\n                Field('item_id'),\n                Field('amount'),\n                Field('date','datetime',default=request.now),\n                Field('status',default = 'pending')\n                )\n\ndb.define_table('invoice_',\n                Field('seller'),\n                Field('customer'),\n                Field('amount'),\n                Field('date','datetime',default=request.now),\n                Field('invoice'),\n                Field('status'))\n\ndb.define_table('cc',\n                Field('first_name'),\n                Field('last_name'),\n                Field('card_number'),\n                Field('security_code'),\n                Field('exp_date'))\n\n#Validations for Vendor ---------------------------\ndb.vendor_.business_name.requires = IS_NOT_IN_DB(db, db.vendor_.business_name)\ndb.vendor_.name.requires = IS_NOT_EMPTY()\ndb.vendor_.email.requires = IS_EMAIL()\n#Regex for phone numbers validation-> (123) 234-1234.\ndb.vendor_.phone_num.requires = IS_MATCH('((\\(\\d{3}\\) ?)|(\\d{3}-))?\\d{3}-\\d{4}',\n                            error_message ='not a valid phone number.')\ndb.vendor_.address.requires = IS_NOT_EMPTY()\ndb.vendor_.vendor_id.requires.writable = False\ndb.vendor_.vendor_id.requires.readable = False\ndb.vendor_.date.requires.readable = False\n\n#Validations for User ---------------------------\ndb.user_.name.requires = IS_NOT_IN_DB(db, db.user_.name)\ndb.user_.email.requires = IS_EMAIL()\ndb.user_.phone_num.requires = IS_MATCH('((\\(\\d{3}\\) ?)|(\\d{3}-))?\\d{3}-\\d{4}',\n                            error_message ='not a valid phone number.')\ndb.user_.user_id.requires.writable = False\ndb.user_.user_id.requires.readable = False\ndb.user_.date.requires.writable = False\ndb.user_.date.requires.readable = False\ndb.user_.payment_info.requires = IS_NOT_EMPTY()\n\n#Validations for Invoice ---------------------------\ndb.invoice.status.requires = IS_IN_SET(['pending','confirmed'])\n\n#Validations for Credit Card ---------------------------\ndb.cc.first_name.requires = IS_NOT_EMPTY()\ndb.cc.last_name.requires = IS_NOT_EMPTY()\ndb.cc.card_number.requires = IS_MATCH('\\d{4}\\d{4}\\d{4}\\d{4}',\n                           error_message ='not a valid card number.')\ndb.cc.security_code.requires = IS_MATCH('\\d{3}',\n                            error_message ='not a valid security code.')\ndb.cc.exp_date.requires = IS_MATCH('\\d{2}/\\d{2}',\n                            error_message ='not a valid expiration date.')\n\n#Validations for items ---------------------------\ndb.item.price.requires = IS_NOT_EMPTY(), IS_FLOAT_IN_RANGE(0, 999999999.0, dot='.',error_message='The price should be in the range $0..999,999,999')\ndb.item.date_added.requires = IS_NOT_EMPTY()\ndb.item.date_added.writable = False\ndb.item.seller.writable = False\ndb.item.thumbnail.writable = False\ndb.item.thumbnail.readable = False\n\nauth.settings.extra_fields['auth_user_']= [Field('phone')]\nauth.define_tables(username=False,signature=False,migrate =False)"
p7
sS'snapshot'
p8
(dp9
S'exception'
p10
(dp11
S'__hash__'
p12
S"<method-wrapper '__hash__' of exceptions.AttributeError object>"
p13
sS'__setattr__'
p14
S"<method-wrapper '__setattr__' of exceptions.AttributeError object>"
p15
sS'__reduce_ex__'
p16
S'<built-in method __reduce_ex__ of exceptions.AttributeError object>'
p17
sS'__getslice__'
p18
S"<method-wrapper '__getslice__' of exceptions.AttributeError object>"
p19
sS'__getitem__'
p20
S"<method-wrapper '__getitem__' of exceptions.AttributeError object>"
p21
sS'__setstate__'
p22
S'<built-in method __setstate__ of exceptions.AttributeError object>'
p23
sS'__reduce__'
p24
S'<built-in method __reduce__ of exceptions.AttributeError object>'
p25
sS'__str__'
p26
S"<method-wrapper '__str__' of exceptions.AttributeError object>"
p27
sS'__format__'
p28
S'<built-in method __format__ of exceptions.AttributeError object>'
p29
sS'__getattribute__'
p30
S"<method-wrapper '__getattribute__' of exceptions.AttributeError object>"
p31
sS'__class__'
p32
S"<type 'exceptions.AttributeError'>"
p33
sS'__unicode__'
p34
S'<built-in method __unicode__ of exceptions.AttributeError object>'
p35
sS'__delattr__'
p36
S"<method-wrapper '__delattr__' of exceptions.AttributeError object>"
p37
sS'__subclasshook__'
p38
S'<built-in method __subclasshook__ of type object>'
p39
sS'__repr__'
p40
S"<method-wrapper '__repr__' of exceptions.AttributeError object>"
p41
sS'args'
p42
S'("\'list\' object has no attribute \'readable\'",)'
p43
sS'__dict__'
p44
S'{}'
p45
sS'__sizeof__'
p46
S'<built-in method __sizeof__ of exceptions.AttributeError object>'
p47
sS'__doc__'
p48
S"'Attribute not found.'"
p49
sS'__init__'
p50
S"<method-wrapper '__init__' of exceptions.AttributeError object>"
p51
sS'__new__'
p52
S'<built-in method __new__ of type object>'
p53
ssS'evalue'
p54
S"'list' object has no attribute 'readable'"
p55
sS'request'
p56
cgluon.html
XML_unpickle
p57
(S's$\xbd\x00\x00<div><table><tr><td style="font-weight:bold;vertical-align:top;">ajax</td><td style="vertical-align:top;">:</td><td><div>False</div></td></tr><tr><td style="font-weight:bold;vertical-align:top;">application</td><td style="vertical-align:top;">:</td><td><div>EasyCommerce</div></td></tr><tr><td style="font-weight:bold;vertical-align:top;">args</td><td style="vertical-align:top;">:</td><td><div><table></table></div></td></tr><tr><td style="font-weight:bold;vertical-align:top;">cid</td><td style="vertical-align:top;">:</td><td><div>None</div></td></tr><tr><td style="font-weight:bold;vertical-align:top;">client</td><td style="vertical-align:top;">:</td><td><div>127.0.0.1</div></td></tr><tr><td style="font-weight:bold;vertical-align:top;">controller</td><td style="vertical-align:top;">:</td><td><div>default</div></td></tr><tr><td style="font-weight:bold;vertical-align:top;">cookies</td><td style="vertical-align:top;">:</td><td><div><table><tr><td style="font-weight:bold;vertical-align:top;">session_id_admin</td><td style="vertical-align:top;">:</td><td><div>127.0.0.1-96e49785-3064-456b-af6f-9eb4271740cc<table><tr><td style="font-weight:bold;vertical-align:top;">comment</td><td style="vertical-align:top;">:</td><td><div></div></td></tr><tr><td style="font-weight:bold;vertical-align:top;">domain</td><td style="vertical-align:top;">:</td><td><div></div></td></tr><tr><td style="font-weight:bold;vertical-align:top;">expires</td><td style="vertical-align:top;">:</td><td><div></div></td></tr><tr><td style="font-weight:bold;vertical-align:top;">httponly</td><td style="vertical-align:top;">:</td><td><div></div></td></tr><tr><td style="font-weight:bold;vertical-align:top;">max-age</td><td style="vertical-align:top;">:</td><td><div></div></td></tr><tr><td style="font-weight:bold;vertical-align:top;">path</td><td style="vertical-align:top;">:</td><td><div></div></td></tr><tr><td style="font-weight:bold;vertical-align:top;">secure</td><td style="vertical-align:top;">:</td><td><div></div></td></tr><tr><td style="font-weight:bold;vertical-align:top;">version</td><td style="vertical-align:top;">:</td><td><div></div></td></tr></table></div></td></tr><tr><td style="font-weight:bold;vertical-align:top;">session_id_authtest</td><td style="vertical-align:top;">:</td><td><div>127.0.0.1-5dd65f24-238e-4b96-850e-fae60d57d9d3<table><tr><td style="font-weight:bold;vertical-align:top;">comment</td><td style="vertical-align:top;">:</td><td><div></div></td></tr><tr><td style="font-weight:bold;vertical-align:top;">domain</td><td style="vertical-align:top;">:</td><td><div></div></td></tr><tr><td style="font-weight:bold;vertical-align:top;">expires</td><td style="vertical-align:top;">:</td><td><div></div></td></tr><tr><td style="font-weight:bold;vertical-align:top;">httponly</td><td style="vertical-align:top;">:</td><td><div></div></td></tr><tr><td style="font-weight:bold;vertical-align:top;">max-age</td><td style="vertical-align:top;">:</td><td><div></div></td></tr><tr><td style="font-weight:bold;vertical-align:top;">path</td><td style="vertical-align:top;">:</td><td><div></div></td></tr><tr><td style="font-weight:bold;vertical-align:top;">secure</td><td style="vertical-align:top;">:</td><td><div></div></td></tr><tr><td style="font-weight:bold;vertical-align:top;">version</td><td style="vertical-align:top;">:</td><td><div></div></td></tr></table></div></td></tr><tr><td style="font-weight:bold;vertical-align:top;">session_id_easycommerce</td><td style="vertical-align:top;">:</td><td><div>127.0.0.1-9fa2134a-ae62-456f-89c6-10277efdaba3<table><tr><td style="font-weight:bold;vertical-align:top;">comment</td><td style="vertical-align:top;">:</td><td><div></div></td></tr><tr><td style="font-weight:bold;vertical-align:top;">domain</td><td style="vertical-align:top;">:</td><td><div></div></td></tr><tr><td style="font-weight:bold;vertical-align:top;">expires</td><td style="vertical-align:top;">:</td><td><div></div></td></tr><tr><td style="font-weight:bold;vertical-align:top;">httponly</td><td style="vertical-align:top;">:</td><td><div></div></td></tr><tr><td style="font-weight:bold;vertical-align:top;">max-age</td><td style="vertical-align:top;">:</td><td><div></div></td></tr><tr><td style="font-weight:bold;vertical-align:top;">path</td><td style="vertical-align:top;">:</td><td><div></div></td></tr><tr><td style="font-weight:bold;vertical-align:top;">secure</td><td style="vertical-align:top;">:</td><td><div></div></td></tr><tr><td style="font-weight:bold;vertical-align:top;">version</td><td style="vertical-align:top;">:</td><td><div></div></td></tr></table></div></td></tr><tr><td style="font-weight:bold;vertical-align:top;">session_id_examples</td><td style="vertical-align:top;">:</td><td><div>True<table><tr><td style="font-weight:bold;vertical-align:top;">comment</td><td style="vertical-align:top;">:</td><td><div></div></td></tr><tr><td style="font-weight:bold;vertical-align:top;">domain</td><td style="vertical-align:top;">:</td><td><div></div></td></tr><tr><td style="font-weight:bold;vertical-align:top;">expires</td><td style="vertical-align:top;">:</td><td><div></div></td></tr><tr><td style="font-weight:bold;vertical-align:top;">httponly</td><td style="vertical-align:top;">:</td><td><div></div></td></tr><tr><td style="font-weight:bold;vertical-align:top;">max-age</td><td style="vertical-align:top;">:</td><td><div></div></td></tr><tr><td style="font-weight:bold;vertical-align:top;">path</td><td style="vertical-align:top;">:</td><td><div></div></td></tr><tr><td style="font-weight:bold;vertical-align:top;">secure</td><td style="vertical-align:top;">:</td><td><div></div></td></tr><tr><td style="font-weight:bold;vertical-align:top;">version</td><td style="vertical-align:top;">:</td><td><div></div></td></tr></table></div></td></tr><tr><td style="font-weight:bold;vertical-align:top;">session_id_formtest</td><td style="vertical-align:top;">:</td><td><div>127.0.0.1-d260078c-3787-45e9-a1cf-8d412ebaf021<table><tr><td style="font-weight:bold;vertical-align:top;">comment</td><td style="vertical-align:top;">:</td><td><div></div></td></tr><tr><td style="font-weight:bold;vertical-align:top;">domain</td><td style="vertical-align:top;">:</td><td><div></div></td></tr><tr><td style="font-weight:bold;vertical-align:top;">expires</td><td style="vertical-align:top;">:</td><td><div></div></td></tr><tr><td style="font-weight:bold;vertical-align:top;">httponly</td><td style="vertical-align:top;">:</td><td><div></div></td></tr><tr><td style="font-weight:bold;vertical-align:top;">max-age</td><td style="vertical-align:top;">:</td><td><div></div></td></tr><tr><td style="font-weight:bold;vertical-align:top;">path</td><td style="vertical-align:top;">:</td><td><div></div></td></tr><tr><td style="font-weight:bold;vertical-align:top;">secure</td><td style="vertical-align:top;">:</td><td><div></div></td></tr><tr><td style="font-weight:bold;vertical-align:top;">version</td><td style="vertical-align:top;">:</td><td><div></div></td></tr></table></div></td></tr><tr><td style="font-weight:bold;vertical-align:top;">session_id_hw1</td><td style="vertical-align:top;">:</td><td><div>127.0.0.1-ab3fb844-ac15-4ca3-b98d-eab9b0a773fe<table><tr><td style="font-weight:bold;vertical-align:top;">comment</td><td style="vertical-align:top;">:</td><td><div></div></td></tr><tr><td style="font-weight:bold;vertical-align:top;">domain</td><td style="vertical-align:top;">:</td><td><div></div></td></tr><tr><td style="font-weight:bold;vertical-align:top;">expires</td><td style="vertical-align:top;">:</td><td><div></div></td></tr><tr><td style="font-weight:bold;vertical-align:top;">httponly</td><td style="vertical-align:top;">:</td><td><div></div></td></tr><tr><td style="font-weight:bold;vertical-align:top;">max-age</td><td style="vertical-align:top;">:</td><td><div></div></td></tr><tr><td style="font-weight:bold;vertical-align:top;">path</td><td style="vertical-align:top;">:</td><td><div></div></td></tr><tr><td style="font-weight:bold;vertical-align:top;">secure</td><td style="vertical-align:top;">:</td><td><div></div></td></tr><tr><td style="font-weight:bold;vertical-align:top;">version</td><td style="vertical-align:top;">:</td><td><div></div></td></tr></table></div></td></tr><tr><td style="font-weight:bold;vertical-align:top;">session_id_hw1p1</td><td style="vertical-align:top;">:</td><td><div>127.0.0.1-661cb64b-6d46-4a81-94fa-473a45f2e6b7<table><tr><td style="font-weight:bold;vertical-align:top;">comment</td><td style="vertical-align:top;">:</td><td><div></div></td></tr><tr><td style="font-weight:bold;vertical-align:top;">domain</td><td style="vertical-align:top;">:</td><td><div></div></td></tr><tr><td style="font-weight:bold;vertical-align:top;">expires</td><td style="vertical-align:top;">:</td><td><div></div></td></tr><tr><td style="font-weight:bold;vertical-align:top;">httponly</td><td style="vertical-align:top;">:</td><td><div></div></td></tr><tr><td style="font-weight:bold;vertical-align:top;">max-age</td><td style="vertical-align:top;">:</td><td><div></div></td></tr><tr><td style="font-weight:bold;vertical-align:top;">path</td><td style="vertical-align:top;">:</td><td><div></div></td></tr><tr><td style="font-weight:bold;vertical-align:top;">secure</td><td style="vertical-align:top;">:</td><td><div></div></td></tr><tr><td style="font-weight:bold;vertical-align:top;">version</td><td style="vertical-align:top;">:</td><td><div></div></td></tr></table></div></td></tr><tr><td style="font-weight:bold;vertical-align:top;">session_id_hw1p2</td><td style="vertical-align:top;">:</td><td><div>127.0.0.1-773faea3-8b0b-4071-b52e-59ed993b51ef<table><tr><td style="font-weight:bold;vertical-align:top;">comment</td><td style="vertical-align:top;">:</td><td><div></div></td></tr><tr><td style="font-weight:bold;vertical-align:top;">domain</td><td style="vertical-align:top;">:</td><td><div></div></td></tr><tr><td style="font-weight:bold;vertical-align:top;">expires</td><td style="vertical-align:top;">:</td><td><div></div></td></tr><tr><td style="font-weight:bold;vertical-align:top;">httponly</td><td style="vertical-align:top;">:</td><td><div></div></td></tr><tr><td style="font-weight:bold;vertical-align:top;">max-age</td><td style="vertical-align:top;">:</td><td><div></div></td></tr><tr><td style="font-weight:bold;vertical-align:top;">path</td><td style="vertical-align:top;">:</td><td><div></div></td></tr><tr><td style="font-weight:bold;vertical-align:top;">secure</td><td style="vertical-align:top;">:</td><td><div></div></td></tr><tr><td style="font-weight:bold;vertical-align:top;">version</td><td style="vertical-align:top;">:</td><td><div></div></td></tr></table></div></td></tr><tr><td style="font-weight:bold;vertical-align:top;">session_id_hw1p3</td><td style="vertical-align:top;">:</td><td><div>127.0.0.1-9cd9c0cf-6010-4877-8a90-5a5d8427e194<table><tr><td style="font-weight:bold;vertical-align:top;">comment</td><td style="vertical-align:top;">:</td><td><div></div></td></tr><tr><td style="font-weight:bold;vertical-align:top;">domain</td><td style="vertical-align:top;">:</td><td><div></div></td></tr><tr><td style="font-weight:bold;vertical-align:top;">expires</td><td style="vertical-align:top;">:</td><td><div></div></td></tr><tr><td style="font-weight:bold;vertical-align:top;">httponly</td><td style="vertical-align:top;">:</td><td><div></div></td></tr><tr><td style="font-weight:bold;vertical-align:top;">max-age</td><td style="vertical-align:top;">:</td><td><div></div></td></tr><tr><td style="font-weight:bold;vertical-align:top;">path</td><td style="vertical-align:top;">:</td><td><div></div></td></tr><tr><td style="font-weight:bold;vertical-align:top;">secure</td><td style="vertical-align:top;">:</td><td><div></div></td></tr><tr><td style="font-weight:bold;vertical-align:top;">version</td><td style="vertical-align:top;">:</td><td><div></div></td></tr></table></div></td></tr><tr><td style="font-weight:bold;vertical-align:top;">session_id_hw1p4</td><td style="vertical-align:top;">:</td><td><div>127.0.0.1-73d8c3a2-999c-42f1-9925-6ec173e5bc5c<table><tr><td style="font-weight:bold;vertical-align:top;">comment</td><td style="vertical-align:top;">:</td><td><div></div></td></tr><tr><td style="font-weight:bold;vertical-align:top;">domain</td><td style="vertical-align:top;">:</td><td><div></div></td></tr><tr><td style="font-weight:bold;vertical-align:top;">expires</td><td style="vertical-align:top;">:</td><td><div></div></td></tr><tr><td style="font-weight:bold;vertical-align:top;">httponly</td><td style="vertical-align:top;">:</td><td><div></div></td></tr><tr><td style="font-weight:bold;vertical-align:top;">max-age</td><td style="vertical-align:top;">:</td><td><div></div></td></tr><tr><td style="font-weight:bold;vertical-align:top;">path</td><td style="vertical-align:top;">:</td><td><div></div></td></tr><tr><td style="font-weight:bold;vertical-align:top;">secure</td><td style="vertical-align:top;">:</td><td><div></div></td></tr><tr><td style="font-weight:bold;vertical-align:top;">version</td><td style="vertical-align:top;">:</td><td><div></div></td></tr></table></div></td></tr><tr><td style="font-weight:bold;vertical-align:top;">session_id_hw2</td><td style="vertical-align:top;">:</td><td><div>127.0.0.1-c18bf172-12c7-42ac-92bc-56605e68cc86<table><tr><td style="font-weight:bold;vertical-align:top;">comment</td><td style="vertical-align:top;">:</td><td><div></div></td></tr><tr><td style="font-weight:bold;vertical-align:top;">domain</td><td style="vertical-align:top;">:</td><td><div></div></td></tr><tr><td style="font-weight:bold;vertical-align:top;">expires</td><td style="vertical-align:top;">:</td><td><div></div></td></tr><tr><td style="font-weight:bold;vertical-align:top;">httponly</td><td style="vertical-align:top;">:</td><td><div></div></td></tr><tr><td style="font-weight:bold;vertical-align:top;">max-age</td><td style="vertical-align:top;">:</td><td><div></div></td></tr><tr><td style="font-weight:bold;vertical-align:top;">path</td><td style="vertical-align:top;">:</td><td><div></div></td></tr><tr><td style="font-weight:bold;vertical-align:top;">secure</td><td style="vertical-align:top;">:</td><td><div></div></td></tr><tr><td style="font-weight:bold;vertical-align:top;">version</td><td style="vertical-align:top;">:</td><td><div></div></td></tr></table></div></td></tr><tr><td style="font-weight:bold;vertical-align:top;">session_id_hw2p1</td><td style="vertical-align:top;">:</td><td><div>127.0.0.1-6e4f77b3-f20a-4e6c-bcb3-afdf22eee9a0<table><tr><td style="font-weight:bold;vertical-align:top;">comment</td><td style="vertical-align:top;">:</td><td><div></div></td></tr><tr><td style="font-weight:bold;vertical-align:top;">domain</td><td style="vertical-align:top;">:</td><td><div></div></td></tr><tr><td style="font-weight:bold;vertical-align:top;">expires</td><td style="vertical-align:top;">:</td><td><div></div></td></tr><tr><td style="font-weight:bold;vertical-align:top;">httponly</td><td style="vertical-align:top;">:</td><td><div></div></td></tr><tr><td style="font-weight:bold;vertical-align:top;">max-age</td><td style="vertical-align:top;">:</td><td><div></div></td></tr><tr><td style="font-weight:bold;vertical-align:top;">path</td><td style="vertical-align:top;">:</td><td><div></div></td></tr><tr><td style="font-weight:bold;vertical-align:top;">secure</td><td style="vertical-align:top;">:</td><td><div></div></td></tr><tr><td style="font-weight:bold;vertical-align:top;">version</td><td style="vertical-align:top;">:</td><td><div></div></td></tr></table></div></td></tr><tr><td style="font-weight:bold;vertical-align:top;">session_id_hw2p2</td><td style="vertical-align:top;">:</td><td><div>127.0.0.1-b80b48fa-5451-4f03-9924-d821f7de16e1<table><tr><td style="font-weight:bold;vertical-align:top;">comment</td><td style="vertical-align:top;">:</td><td><div></div></td></tr><tr><td style="font-weight:bold;vertical-align:top;">domain</td><td style="vertical-align:top;">:</td><td><div></div></td></tr><tr><td style="font-weight:bold;vertical-align:top;">expires</td><td style="vertical-align:top;">:</td><td><div></div></td></tr><tr><td style="font-weight:bold;vertical-align:top;">httponly</td><td style="vertical-align:top;">:</td><td><div></div></td></tr><tr><td style="font-weight:bold;vertical-align:top;">max-age</td><td style="vertical-align:top;">:</td><td><div></div></td></tr><tr><td style="font-weight:bold;vertical-align:top;">path</td><td style="vertical-align:top;">:</td><td><div></div></td></tr><tr><td style="font-weight:bold;vertical-align:top;">secure</td><td style="vertical-align:top;">:</td><td><div></div></td></tr><tr><td style="font-weight:bold;vertical-align:top;">version</td><td style="vertical-align:top;">:</td><td><div></div></td></tr></table></div></td></tr><tr><td style="font-weight:bold;vertical-align:top;">session_id_hw2p3</td><td style="vertical-align:top;">:</td><td><div>127.0.0.1-4e2d9803-779c-49f9-8a2c-834a52ef01cb<table><tr><td style="font-weight:bold;vertical-align:top;">comment</td><td style="vertical-align:top;">:</td><td><div></div></td></tr><tr><td style="font-weight:bold;vertical-align:top;">domain</td><td style="vertical-align:top;">:</td><td><div></div></td></tr><tr><td style="font-weight:bold;vertical-align:top;">expires</td><td style="vertical-align:top;">:</td><td><div></div></td></tr><tr><td style="font-weight:bold;vertical-align:top;">httponly</td><td style="vertical-align:top;">:</td><td><div></div></td></tr><tr><td style="font-weight:bold;vertical-align:top;">max-age</td><td style="vertical-align:top;">:</td><td><div></div></td></tr><tr><td style="font-weight:bold;vertical-align:top;">path</td><td style="vertical-align:top;">:</td><td><div></div></td></tr><tr><td style="font-weight:bold;vertical-align:top;">secure</td><td style="vertical-align:top;">:</td><td><div></div></td></tr><tr><td style="font-weight:bold;vertical-align:top;">version</td><td style="vertical-align:top;">:</td><td><div></div></td></tr></table></div></td></tr><tr><td style="font-weight:bold;vertical-align:top;">session_id_hw2p4</td><td style="vertical-align:top;">:</td><td><div>127.0.0.1-3501a4f9-b8d2-443f-92fb-762516f0cceb<table><tr><td style="font-weight:bold;vertical-align:top;">comment</td><td style="vertical-align:top;">:</td><td><div></div></td></tr><tr><td style="font-weight:bold;vertical-align:top;">domain</td><td style="vertical-align:top;">:</td><td><div></div></td></tr><tr><td style="font-weight:bold;vertical-align:top;">expires</td><td style="vertical-align:top;">:</td><td><div></div></td></tr><tr><td style="font-weight:bold;vertical-align:top;">httponly</td><td style="vertical-align:top;">:</td><td><div></div></td></tr><tr><td style="font-weight:bold;vertical-align:top;">max-age</td><td style="vertical-align:top;">:</td><td><div></div></td></tr><tr><td style="font-weight:bold;vertical-align:top;">path</td><td style="vertical-align:top;">:</td><td><div></div></td></tr><tr><td style="font-weight:bold;vertical-align:top;">secure</td><td style="vertical-align:top;">:</td><td><div></div></td></tr><tr><td style="font-weight:bold;vertical-align:top;">version</td><td style="vertical-align:top;">:</td><td><div></div></td></tr></table></div></td></tr><tr><td style="font-weight:bold;vertical-align:top;">session_id_hw3</td><td style="vertical-align:top;">:</td><td><div>127.0.0.1-1a5643de-8c08-4758-a4c5-f2a5cdcaeac5<table><tr><td style="font-weight:bold;vertical-align:top;">comment</td><td style="vertical-align:top;">:</td><td><div></div></td></tr><tr><td style="font-weight:bold;vertical-align:top;">domain</td><td style="vertical-align:top;">:</td><td><div></div></td></tr><tr><td style="font-weight:bold;vertical-align:top;">expires</td><td style="vertical-align:top;">:</td><td><div></div></td></tr><tr><td style="font-weight:bold;vertical-align:top;">httponly</td><td style="vertical-align:top;">:</td><td><div></div></td></tr><tr><td style="font-weight:bold;vertical-align:top;">max-age</td><td style="vertical-align:top;">:</td><td><div></div></td></tr><tr><td style="font-weight:bold;vertical-align:top;">path</td><td style="vertical-align:top;">:</td><td><div></div></td></tr><tr><td style="font-weight:bold;vertical-align:top;">secure</td><td style="vertical-align:top;">:</td><td><div></div></td></tr><tr><td style="font-weight:bold;vertical-align:top;">version</td><td style="vertical-align:top;">:</td><td><div></div></td></tr></table></div></td></tr><tr><td style="font-weight:bold;vertical-align:top;">session_id_images</td><td style="vertical-align:top;">:</td><td><div>127.0.0.1-2894bca0-2484-40b7-93d4-cb521c4f3b76<table><tr><td style="font-weight:bold;vertical-align:top;">comment</td><td style="vertical-align:top;">:</td><td><div></div></td></tr><tr><td style="font-weight:bold;vertical-align:top;">domain</td><td style="vertical-align:top;">:</td><td><div></div></td></tr><tr><td style="font-weight:bold;vertical-align:top;">expires</td><td style="vertical-align:top;">:</td><td><div></div></td></tr><tr><td style="font-weight:bold;vertical-align:top;">httponly</td><td style="vertical-align:top;">:</td><td><div></div></td></tr><tr><td style="font-weight:bold;vertical-align:top;">max-age</td><td style="vertical-align:top;">:</td><td><div></div></td></tr><tr><td style="font-weight:bold;vertical-align:top;">path</td><td style="vertical-align:top;">:</td><td><div></div></td></tr><tr><td style="font-weight:bold;vertical-align:top;">secure</td><td style="vertical-align:top;">:</td><td><div></div></td></tr><tr><td style="font-weight:bold;vertical-align:top;">version</td><td style="vertical-align:top;">:</td><td><div></div></td></tr></table></div></td></tr><tr><td style="font-weight:bold;vertical-align:top;">session_id_myapp</td><td style="vertical-align:top;">:</td><td><div>127.0.0.1-bfb47796-af64-409f-9b2f-fbc208274fce<table><tr><td style="font-weight:bold;vertical-align:top;">comment</td><td style="vertical-align:top;">:</td><td><div></div></td></tr><tr><td style="font-weight:bold;vertical-align:top;">domain</td><td style="vertical-align:top;">:</td><td><div></div></td></tr><tr><td style="font-weight:bold;vertical-align:top;">expires</td><td style="vertical-align:top;">:</td><td><div></div></td></tr><tr><td style="font-weight:bold;vertical-align:top;">httponly</td><td style="vertical-align:top;">:</td><td><div></div></td></tr><tr><td style="font-weight:bold;vertical-align:top;">max-age</td><td style="vertical-align:top;">:</td><td><div></div></td></tr><tr><td style="font-weight:bold;vertical-align:top;">path</td><td style="vertical-align:top;">:</td><td><div></div></td></tr><tr><td style="font-weight:bold;vertical-align:top;">secure</td><td style="vertical-align:top;">:</td><td><div></div></td></tr><tr><td style="font-weight:bold;vertical-align:top;">version</td><td style="vertical-align:top;">:</td><td><div></div></td></tr></table></div></td></tr><tr><td style="font-weight:bold;vertical-align:top;">session_id_styletest</td><td style="vertical-align:top;">:</td><td><div>127.0.0.1-fe25fda2-8a77-4ff1-9a5e-89d6653846db<table><tr><td style="font-weight:bold;vertical-align:top;">comment</td><td style="vertical-align:top;">:</td><td><div></div></td></tr><tr><td style="font-weight:bold;vertical-align:top;">domain</td><td style="vertical-align:top;">:</td><td><div></div></td></tr><tr><td style="font-weight:bold;vertical-align:top;">expires</td><td style="vertical-align:top;">:</td><td><div></div></td></tr><tr><td style="font-weight:bold;vertical-align:top;">httponly</td><td style="vertical-align:top;">:</td><td><div></div></td></tr><tr><td style="font-weight:bold;vertical-align:top;">max-age</td><td style="vertical-align:top;">:</td><td><div></div></td></tr><tr><td style="font-weight:bold;vertical-align:top;">path</td><td style="vertical-align:top;">:</td><td><div></div></td></tr><tr><td style="font-weight:bold;vertical-align:top;">secure</td><td style="vertical-align:top;">:</td><td><div></div></td></tr><tr><td style="font-weight:bold;vertical-align:top;">version</td><td style="vertical-align:top;">:</td><td><div></div></td></tr></table></div></td></tr><tr><td style="font-weight:bold;vertical-align:top;">session_id_test</td><td style="vertical-align:top;">:</td><td><div>127.0.0.1-5fb76ed6-2038-4b0e-ac4a-17a7f5b23016<table><tr><td style="font-weight:bold;vertical-align:top;">comment</td><td style="vertical-align:top;">:</td><td><div></div></td></tr><tr><td style="font-weight:bold;vertical-align:top;">domain</td><td style="vertical-align:top;">:</td><td><div></div></td></tr><tr><td style="font-weight:bold;vertical-align:top;">expires</td><td style="vertical-align:top;">:</td><td><div></div></td></tr><tr><td style="font-weight:bold;vertical-align:top;">httponly</td><td style="vertical-align:top;">:</td><td><div></div></td></tr><tr><td style="font-weight:bold;vertical-align:top;">max-age</td><td style="vertical-align:top;">:</td><td><div></div></td></tr><tr><td style="font-weight:bold;vertical-align:top;">path</td><td style="vertical-align:top;">:</td><td><div></div></td></tr><tr><td style="font-weight:bold;vertical-align:top;">secure</td><td style="vertical-align:top;">:</td><td><div></div></td></tr><tr><td style="font-weight:bold;vertical-align:top;">version</td><td style="vertical-align:top;">:</td><td><div></div></td></tr></table></div></td></tr><tr><td style="font-weight:bold;vertical-align:top;">session_id_welcome</td><td style="vertical-align:top;">:</td><td><div>127.0.0.1-b7a060a5-0268-4a8b-9005-f5902b6b14de<table><tr><td style="font-weight:bold;vertical-align:top;">comment</td><td style="vertical-align:top;">:</td><td><div></div></td></tr><tr><td style="font-weight:bold;vertical-align:top;">domain</td><td style="vertical-align:top;">:</td><td><div></div></td></tr><tr><td style="font-weight:bold;vertical-align:top;">expires</td><td style="vertical-align:top;">:</td><td><div></div></td></tr><tr><td style="font-weight:bold;vertical-align:top;">httponly</td><td style="vertical-align:top;">:</td><td><div></div></td></tr><tr><td style="font-weight:bold;vertical-align:top;">max-age</td><td style="vertical-align:top;">:</td><td><div></div></td></tr><tr><td style="font-weight:bold;vertical-align:top;">path</td><td style="vertical-align:top;">:</td><td><div></div></td></tr><tr><td style="font-weight:bold;vertical-align:top;">secure</td><td style="vertical-align:top;">:</td><td><div></div></td></tr><tr><td style="font-weight:bold;vertical-align:top;">version</td><td style="vertical-align:top;">:</td><td><div></div></td></tr></table></div></td></tr></table></div></td></tr><tr><td style="font-weight:bold;vertical-align:top;">env</td><td style="vertical-align:top;">:</td><td><div><table><tr><td style="font-weight:bold;vertical-align:top;">HTTP_ACCEPT</td><td style="vertical-align:top;">:</td><td><div>text/html,application/xhtml+xml,application/xml;q=0.9,image/webp,*/*;q=0.8</div></td></tr><tr><td style="font-weight:bold;vertical-align:top;">HTTP_ACCEPT_ENCODING</td><td style="vertical-align:top;">:</td><td><div>gzip, deflate, sdch, br</div></td></tr><tr><td style="font-weight:bold;vertical-align:top;">HTTP_ACCEPT_LANGUAGE</td><td style="vertical-align:top;">:</td><td><div>en-US,en;q=0.8</div></td></tr><tr><td style="font-weight:bold;vertical-align:top;">HTTP_CACHE_CONTROL</td><td style="vertical-align:top;">:</td><td><div>max-age=0</div></td></tr><tr><td style="font-weight:bold;vertical-align:top;">HTTP_CONNECTION</td><td style="vertical-align:top;">:</td><td><div>keep-alive</div></td></tr><tr><td style="font-weight:bold;vertical-align:top;">HTTP_COOKIE</td><td style="vertical-align:top;">:</td><td><div>session_id_myapp=127.0.0.1-bfb47796-af64-409f-9b2f-fbc208274fce; session_id_images=127.0.0.1-2894bca0-2484-40b7-93d4-cb521c4f3b76; session_id_examples=True; session_id_hw1p1=127.0.0.1-661cb64b-6d46-4a81-94fa-473a45f2e6b7; session_id_hw1p3=127.0.0.1-9cd9c0cf-6010-4877-8a90-5a5d8427e194; session_id_hw1p4=127.0.0.1-73d8c3a2-999c-42f1-9925-6ec173e5bc5c; session_id_hw1p2=127.0.0.1-773faea3-8b0b-4071-b52e-59ed993b51ef; session_id_hw1=127.0.0.1-ab3fb844-ac15-4ca3-b98d-eab9b0a773fe; session_id_styletest=127.0.0.1-fe25fda2-8a77-4ff1-9a5e-89d6653846db; session_id_formtest=127.0.0.1-d260078c-3787-45e9-a1cf-8d412ebaf021; session_id_authtest=127.0.0.1-5dd65f24-238e-4b96-850e-fae60d57d9d3; session_id_test=127.0.0.1-5fb76ed6-2038-4b0e-ac4a-17a7f5b23016; session_id_hw2p1=127.0.0.1-6e4f77b3-f20a-4e6c-bcb3-afdf22eee9a0; session_id_hw2p2=127.0.0.1-b80b48fa-5451-4f03-9924-d821f7de16e1; session_id_hw2p3=127.0.0.1-4e2d9803-779c-49f9-8a2c-834a52ef01cb; session_id_hw2p4=127.0.0.1-3501a4f9-b8d2-443f-92fb-762516f0cceb; session_id_hw2=127.0.0.1-c18bf172-12c7-42ac-92bc-56605e68cc86; session_id_hw3=127.0.0.1-1a5643de-8c08-4758-a4c5-f2a5cdcaeac5; session_id_welcome=127.0.0.1-b7a060a5-0268-4a8b-9005-f5902b6b14de; session_id_easycommerce=127.0.0.1-9fa2134a-ae62-456f-89c6-10277efdaba3; session_id_admin=127.0.0.1-96e49785-3064-456b-af6f-9eb4271740cc</div></td></tr><tr><td style="font-weight:bold;vertical-align:top;">HTTP_HOST</td><td style="vertical-align:top;">:</td><td><div>127.0.0.1:8000</div></td></tr><tr><td style="font-weight:bold;vertical-align:top;">HTTP_UPGRADE_INSECURE_REQUESTS</td><td style="vertical-align:top;">:</td><td><div>1</div></td></tr><tr><td style="font-weight:bold;vertical-align:top;">HTTP_USER_AGENT</td><td style="vertical-align:top;">:</td><td><div>Mozilla/5.0 (Windows NT 10.0; Win64; x64) AppleWebKit/537.36 (KHTML, like Gecko) Chrome/56.0.2924.87 Safari/537.36</div></td></tr><tr><td style="font-weight:bold;vertical-align:top;">PATH_INFO</td><td style="vertical-align:top;">:</td><td><div>/EasyCommerce/default/vendor_add</div></td></tr><tr><td style="font-weight:bold;vertical-align:top;">QUERY_STRING</td><td style="vertical-align:top;">:</td><td><div></div></td></tr><tr><td style="font-weight:bold;vertical-align:top;">REMOTE_ADDR</td><td style="vertical-align:top;">:</td><td><div>127.0.0.1</div></td></tr><tr><td style="font-weight:bold;vertical-align:top;">REMOTE_PORT</td><td style="vertical-align:top;">:</td><td><div>39386</div></td></tr><tr><td style="font-weight:bold;vertical-align:top;">REQUEST_METHOD</td><td style="vertical-align:top;">:</td><td><div>GET</div></td></tr><tr><td style="font-weight:bold;vertical-align:top;">SCRIPT_NAME</td><td style="vertical-align:top;">:</td><td><div></div></td></tr><tr><td style="font-weight:bold;vertical-align:top;">SERVER_NAME</td><td style="vertical-align:top;">:</td><td><div>DESKTOP-UIDEION</div></td></tr><tr><td style="font-weight:bold;vertical-align:top;">SERVER_PORT</td><td style="vertical-align:top;">:</td><td><div>8000</div></td></tr><tr><td style="font-weight:bold;vertical-align:top;">SERVER_PROTOCOL</td><td style="vertical-align:top;">:</td><td><div>HTTP/1.1</div></td></tr><tr><td style="font-weight:bold;vertical-align:top;">SERVER_SOFTWARE</td><td style="vertical-align:top;">:</td><td><div>Rocket 1.2.6</div></td></tr><tr><td style="font-weight:bold;vertical-align:top;">app_folders</td><td style="vertical-align:top;">:</td><td><div>set([&#x27;C:\\\\Users\\\\lvr20\\\\PycharmProjects\\\\EasyCommerce\\\\web2py\\\\applications\\\\welcome\\\\&#x27;, &#x27;C:\\\\Users\\\\lvr20\\\\PycharmProjects\\\\EasyCommerce\\\\web2py\\\\applications\\\\admin\\\\&#x27;, &#x27;C:\\\\Users\\\\lvr20\\\\PycharmProjects\\\\EasyCommerce\\\\web2py\\\\applications\\\\EasyCommerce\\\\&#x27;])</div></td></tr><tr><td style="font-weight:bold;vertical-align:top;">applications_parent</td><td style="vertical-align:top;">:</td><td><div>C:\\Users\\lvr20\\PycharmProjects\\EasyCommerce\\web2py</div></td></tr><tr><td style="font-weight:bold;vertical-align:top;">cmd_args</td><td style="vertical-align:top;">:</td><td><div><table></table></div></td></tr><tr><td style="font-weight:bold;vertical-align:top;">cmd_options</td><td style="vertical-align:top;">:</td><td><div>&lt;Values at 0x34e5cb0: {&#x27;verbose&#x27;: False, &#x27;ip&#x27;: &#x27;127.0.0.1&#x27;, &#x27;debuglevel&#x27;: 30, &#x27;with_scheduler&#x27;: False, &#x27;shutdown_timeout&#x27;: 5, &#x27;taskbar&#x27;: False, &#x27;with_coverage&#x27;: False, &#x27;pid_filename&#x27;: &#x27;httpserver.pid&#x27;, &#x27;maxthreads&#x27;: None, &#x27;softcron&#x27;: False, &#x27;server_name&#x27;: &#x27;DESKTOP-UIDEION&#x27;, &#x27;bpython&#x27;: False, &#x27;nogui&#x27;: False, &#x27;port&#x27;: 8000, &#x27;print_errors&#x27;: False, &#x27;extcron&#x27;: False, &#x27;runcron&#x27;: False, &#x27;run_system_tests&#x27;: False, &#x27;test&#x27;: None, &#x27;folder&#x27;: &#x27;C:\\\\Users\\\\lvr20\\\\PycharmProjects\\\\EasyCommerce\\\\web2py&#x27;, &#x27;config&#x27;: &#x27;&#x27;, &#x27;minthreads&#x27;: None, &#x27;shell&#x27;: None, &#x27;run&#x27;: &#x27;&#x27;, &#x27;log_filename&#x27;: &#x27;httpserver.log&#x27;, &#x27;profiler_dir&#x27;: None, &#x27;args&#x27;: [&#x27;&#x27;], &#x27;socket_timeout&#x27;: 5, &#x27;ssl_ca_certificate&#x27;: None, &#x27;scheduler&#x27;: None, &#x27;interfaces&#x27;: None, &#x27;ssl_private_key&#x27;: &#x27;&#x27;, &#x27;gae&#x27;: None, &#x27;password&#x27;: &#x27;******&#x27;, &#x27;request_queue_size&#x27;: 5, &#x27;ssl_certificate&#x27;: &#x27;&#x27;, &#x27;cronjob&#x27;: False, &#x27;numthreads&#x27;: None, &#x27;quiet&#x27;: False, &#x27;import_models&#x27;: False, &#x27;timeout&#x27;: 10, &#x27;plain&#x27;: False, &#x27;nobanner&#x27;: False}&gt;</div></td></tr><tr><td style="font-weight:bold;vertical-align:top;">db_sessions</td><td style="vertical-align:top;">:</td><td><div>set([])</div></td></tr><tr><td style="font-weight:bold;vertical-align:top;">debugging</td><td style="vertical-align:top;">:</td><td><div>False</div></td></tr><tr><td style="font-weight:bold;vertical-align:top;">gluon_parent</td><td style="vertical-align:top;">:</td><td><div>C:\\Users\\lvr20\\PycharmProjects\\EasyCommerce\\web2py</div></td></tr><tr><td style="font-weight:bold;vertical-align:top;">http_accept</td><td style="vertical-align:top;">:</td><td><div>text/html,application/xhtml+xml,application/xml;q=0.9,image/webp,*/*;q=0.8</div></td></tr><tr><td style="font-weight:bold;vertical-align:top;">http_accept_encoding</td><td style="vertical-align:top;">:</td><td><div>gzip, deflate, sdch, br</div></td></tr><tr><td style="font-weight:bold;vertical-align:top;">http_accept_language</td><td style="vertical-align:top;">:</td><td><div>en-US,en;q=0.8</div></td></tr><tr><td style="font-weight:bold;vertical-align:top;">http_cache_control</td><td style="vertical-align:top;">:</td><td><div>max-age=0</div></td></tr><tr><td style="font-weight:bold;vertical-align:top;">http_connection</td><td style="vertical-align:top;">:</td><td><div>keep-alive</div></td></tr><tr><td style="font-weight:bold;vertical-align:top;">http_cookie</td><td style="vertical-align:top;">:</td><td><div>session_id_myapp=127.0.0.1-bfb47796-af64-409f-9b2f-fbc208274fce; session_id_images=127.0.0.1-2894bca0-2484-40b7-93d4-cb521c4f3b76; session_id_examples=True; session_id_hw1p1=127.0.0.1-661cb64b-6d46-4a81-94fa-473a45f2e6b7; session_id_hw1p3=127.0.0.1-9cd9c0cf-6010-4877-8a90-5a5d8427e194; session_id_hw1p4=127.0.0.1-73d8c3a2-999c-42f1-9925-6ec173e5bc5c; session_id_hw1p2=127.0.0.1-773faea3-8b0b-4071-b52e-59ed993b51ef; session_id_hw1=127.0.0.1-ab3fb844-ac15-4ca3-b98d-eab9b0a773fe; session_id_styletest=127.0.0.1-fe25fda2-8a77-4ff1-9a5e-89d6653846db; session_id_formtest=127.0.0.1-d260078c-3787-45e9-a1cf-8d412ebaf021; session_id_authtest=127.0.0.1-5dd65f24-238e-4b96-850e-fae60d57d9d3; session_id_test=127.0.0.1-5fb76ed6-2038-4b0e-ac4a-17a7f5b23016; session_id_hw2p1=127.0.0.1-6e4f77b3-f20a-4e6c-bcb3-afdf22eee9a0; session_id_hw2p2=127.0.0.1-b80b48fa-5451-4f03-9924-d821f7de16e1; session_id_hw2p3=127.0.0.1-4e2d9803-779c-49f9-8a2c-834a52ef01cb; session_id_hw2p4=127.0.0.1-3501a4f9-b8d2-443f-92fb-762516f0cceb; session_id_hw2=127.0.0.1-c18bf172-12c7-42ac-92bc-56605e68cc86; session_id_hw3=127.0.0.1-1a5643de-8c08-4758-a4c5-f2a5cdcaeac5; session_id_welcome=127.0.0.1-b7a060a5-0268-4a8b-9005-f5902b6b14de; session_id_easycommerce=127.0.0.1-9fa2134a-ae62-456f-89c6-10277efdaba3; session_id_admin=127.0.0.1-96e49785-3064-456b-af6f-9eb4271740cc</div></td></tr><tr><td style="font-weight:bold;vertical-align:top;">http_host</td><td style="vertical-align:top;">:</td><td><div>127.0.0.1:8000</div></td></tr><tr><td style="font-weight:bold;vertical-align:top;">http_upgrade_insecure_requests</td><td style="vertical-align:top;">:</td><td><div>1</div></td></tr><tr><td style="font-weight:bold;vertical-align:top;">http_user_agent</td><td style="vertical-align:top;">:</td><td><div>Mozilla/5.0 (Windows NT 10.0; Win64; x64) AppleWebKit/537.36 (KHTML, like Gecko) Chrome/56.0.2924.87 Safari/537.36</div></td></tr><tr><td style="font-weight:bold;vertical-align:top;">is_jython</td><td style="vertical-align:top;">:</td><td><div>False</div></td></tr><tr><td style="font-weight:bold;vertical-align:top;">is_pypy</td><td style="vertical-align:top;">:</td><td><div>False</div></td></tr><tr><td style="font-weight:bold;vertical-align:top;">is_source</td><td style="vertical-align:top;">:</td><td><div>True</div></td></tr><tr><td style="font-weight:bold;vertical-align:top;">local_hosts</td><td style="vertical-align:top;">:</td><td><div><table><tr><td><div>fe80::30ed:f604:3921:79ba%17</div></td></tr><tr><td><div>DESKTOP-UIDEION.ucsc.edu</div></td></tr><tr><td><div>::ffff:127.0.0.1</div></td></tr><tr><td><div>::1</div></td></tr><tr><td><div>192.168.56.1</div></td></tr><tr><td><div>DESKTOP-UIDEION</div></td></tr><tr><td><div>169.233.207.182</div></td></tr><tr><td><div>127.0.0.1</div></td></tr><tr><td><div>fe80::7c0d:227e:59f9:8aa0%15</div></td></tr></table></div></td></tr><tr><td style="font-weight:bold;vertical-align:top;">path_info</td><td style="vertical-align:top;">:</td><td><div>/EasyCommerce/default/vendor_add</div></td></tr><tr><td style="font-weight:bold;vertical-align:top;">query_string</td><td style="vertical-align:top;">:</td><td><div></div></td></tr><tr><td style="font-weight:bold;vertical-align:top;">remote_addr</td><td style="vertical-align:top;">:</td><td><div>127.0.0.1</div></td></tr><tr><td style="font-weight:bold;vertical-align:top;">remote_port</td><td style="vertical-align:top;">:</td><td><div>39386</div></td></tr><tr><td style="font-weight:bold;vertical-align:top;">request_method</td><td style="vertical-align:top;">:</td><td><div>GET</div></td></tr><tr><td style="font-weight:bold;vertical-align:top;">request_uri</td><td style="vertical-align:top;">:</td><td><div>/EasyCommerce/default/vendor_add</div></td></tr><tr><td style="font-weight:bold;vertical-align:top;">script_name</td><td style="vertical-align:top;">:</td><td><div></div></td></tr><tr><td style="font-weight:bold;vertical-align:top;">server_name</td><td style="vertical-align:top;">:</td><td><div>DESKTOP-UIDEION</div></td></tr><tr><td style="font-weight:bold;vertical-align:top;">server_port</td><td style="vertical-align:top;">:</td><td><div>8000</div></td></tr><tr><td style="font-weight:bold;vertical-align:top;">server_protocol</td><td style="vertical-align:top;">:</td><td><div>HTTP/1.1</div></td></tr><tr><td style="font-weight:bold;vertical-align:top;">server_software</td><td style="vertical-align:top;">:</td><td><div>Rocket 1.2.6</div></td></tr><tr><td style="font-weight:bold;vertical-align:top;">web2py_path</td><td style="vertical-align:top;">:</td><td><div>C:\\Users\\lvr20\\PycharmProjects\\EasyCommerce\\web2py</div></td></tr><tr><td style="font-weight:bold;vertical-align:top;">web2py_version</td><td style="vertical-align:top;">:</td><td><div>2.14.6-stable+timestamp.2016.05.10.00.21.47</div></td></tr><tr><td style="font-weight:bold;vertical-align:top;">wsgi.errors</td><td style="vertical-align:top;">:</td><td><div>&lt;open file &#x27;&lt;stderr&gt;&#x27;, mode &#x27;w&#x27; at 0x025E50D0&gt;</div></td></tr><tr><td style="font-weight:bold;vertical-align:top;">wsgi.file_wrapper</td><td style="vertical-align:top;">:</td><td><div>&lt;class wsgiref.util.FileWrapper at 0x034B2B90&gt;</div></td></tr><tr><td style="font-weight:bold;vertical-align:top;">wsgi.input</td><td style="vertical-align:top;">:</td><td><div>&lt;socket._fileobject object at 0x0A58CF70&gt;</div></td></tr><tr><td style="font-weight:bold;vertical-align:top;">wsgi.multiprocess</td><td style="vertical-align:top;">:</td><td><div>False</div></td></tr><tr><td style="font-weight:bold;vertical-align:top;">wsgi.multithread</td><td style="vertical-align:top;">:</td><td><div>True</div></td></tr><tr><td style="font-weight:bold;vertical-align:top;">wsgi.run_once</td><td style="vertical-align:top;">:</td><td><div>False</div></td></tr><tr><td style="font-weight:bold;vertical-align:top;">wsgi.url_scheme</td><td style="vertical-align:top;">:</td><td><div>http</div></td></tr><tr><td style="font-weight:bold;vertical-align:top;">wsgi.version</td><td style="vertical-align:top;">:</td><td><div><table><tr><td><div>1</div></td></tr><tr><td><div>0</div></td></tr></table></div></td></tr><tr><td style="font-weight:bold;vertical-align:top;">wsgi_errors</td><td style="vertical-align:top;">:</td><td><div>&lt;open file &#x27;&lt;stderr&gt;&#x27;, mode &#x27;w&#x27; at 0x025E50D0&gt;</div></td></tr><tr><td style="font-weight:bold;vertical-align:top;">wsgi_file_wrapper</td><td style="vertical-align:top;">:</td><td><div>&lt;class wsgiref.util.FileWrapper at 0x034B2B90&gt;</div></td></tr><tr><td style="font-weight:bold;vertical-align:top;">wsgi_input</td><td style="vertical-align:top;">:</td><td><div>&lt;socket._fileobject object at 0x0A58CF70&gt;</div></td></tr><tr><td style="font-weight:bold;vertical-align:top;">wsgi_multiprocess</td><td style="vertical-align:top;">:</td><td><div>False</div></td></tr><tr><td style="font-weight:bold;vertical-align:top;">wsgi_multithread</td><td style="vertical-align:top;">:</td><td><div>True</div></td></tr><tr><td style="font-weight:bold;vertical-align:top;">wsgi_run_once</td><td style="vertical-align:top;">:</td><td><div>False</div></td></tr><tr><td style="font-weight:bold;vertical-align:top;">wsgi_url_scheme</td><td style="vertical-align:top;">:</td><td><div>http</div></td></tr><tr><td style="font-weight:bold;vertical-align:top;">wsgi_version</td><td style="vertical-align:top;">:</td><td><div><table><tr><td><div>1</div></td></tr><tr><td><div>0</div></td></tr></table></div></td></tr></table></div></td></tr><tr><td style="font-weight:bold;vertical-align:top;">extension</td><td style="vertical-align:top;">:</td><td><div>html</div></td></tr><tr><td style="font-weight:bold;vertical-align:top;">folder</td><td style="vertical-align:top;">:</td><td><div>C:\\Users\\lvr20\\PycharmProjects\\EasyCommerce\\web2py\\applications\\EasyCommerce\\</div></td></tr><tr><td style="font-weight:bold;vertical-align:top;">function</td><td style="vertical-align:top;">:</td><td><div>vendor_add</div></td></tr><tr><td style="font-weight:bold;vertical-align:top;">global_settings</td><td style="vertical-align:top;">:</td><td><div><table><tr><td style="font-weight:bold;vertical-align:top;">app_folders</td><td style="vertical-align:top;">:</td><td><div>set([&#x27;C:\\\\Users\\\\lvr20\\\\PycharmProjects\\\\EasyCommerce\\\\web2py\\\\applications\\\\welcome\\\\&#x27;, &#x27;C:\\\\Users\\\\lvr20\\\\PycharmProjects\\\\EasyCommerce\\\\web2py\\\\applications\\\\admin\\\\&#x27;, &#x27;C:\\\\Users\\\\lvr20\\\\PycharmProjects\\\\EasyCommerce\\\\web2py\\\\applications\\\\EasyCommerce\\\\&#x27;])</div></td></tr><tr><td style="font-weight:bold;vertical-align:top;">applications_parent</td><td style="vertical-align:top;">:</td><td><div>C:\\Users\\lvr20\\PycharmProjects\\EasyCommerce\\web2py</div></td></tr><tr><td style="font-weight:bold;vertical-align:top;">cmd_args</td><td style="vertical-align:top;">:</td><td><div><table></table></div></td></tr><tr><td style="font-weight:bold;vertical-align:top;">cmd_options</td><td style="vertical-align:top;">:</td><td><div>&lt;Values at 0x34e5cb0: {&#x27;verbose&#x27;: False, &#x27;ip&#x27;: &#x27;127.0.0.1&#x27;, &#x27;debuglevel&#x27;: 30, &#x27;with_scheduler&#x27;: False, &#x27;shutdown_timeout&#x27;: 5, &#x27;taskbar&#x27;: False, &#x27;with_coverage&#x27;: False, &#x27;pid_filename&#x27;: &#x27;httpserver.pid&#x27;, &#x27;maxthreads&#x27;: None, &#x27;softcron&#x27;: False, &#x27;server_name&#x27;: &#x27;DESKTOP-UIDEION&#x27;, &#x27;bpython&#x27;: False, &#x27;nogui&#x27;: False, &#x27;port&#x27;: 8000, &#x27;print_errors&#x27;: False, &#x27;extcron&#x27;: False, &#x27;runcron&#x27;: False, &#x27;run_system_tests&#x27;: False, &#x27;test&#x27;: None, &#x27;folder&#x27;: &#x27;C:\\\\Users\\\\lvr20\\\\PycharmProjects\\\\EasyCommerce\\\\web2py&#x27;, &#x27;config&#x27;: &#x27;&#x27;, &#x27;minthreads&#x27;: None, &#x27;shell&#x27;: None, &#x27;run&#x27;: &#x27;&#x27;, &#x27;log_filename&#x27;: &#x27;httpserver.log&#x27;, &#x27;profiler_dir&#x27;: None, &#x27;args&#x27;: [&#x27;&#x27;], &#x27;socket_timeout&#x27;: 5, &#x27;ssl_ca_certificate&#x27;: None, &#x27;scheduler&#x27;: None, &#x27;interfaces&#x27;: None, &#x27;ssl_private_key&#x27;: &#x27;&#x27;, &#x27;gae&#x27;: None, &#x27;password&#x27;: &#x27;******&#x27;, &#x27;request_queue_size&#x27;: 5, &#x27;ssl_certificate&#x27;: &#x27;&#x27;, &#x27;cronjob&#x27;: False, &#x27;numthreads&#x27;: None, &#x27;quiet&#x27;: False, &#x27;import_models&#x27;: False, &#x27;timeout&#x27;: 10, &#x27;plain&#x27;: False, &#x27;nobanner&#x27;: False}&gt;</div></td></tr><tr><td style="font-weight:bold;vertical-align:top;">db_sessions</td><td style="vertical-align:top;">:</td><td><div>set([])</div></td></tr><tr><td style="font-weight:bold;vertical-align:top;">debugging</td><td style="vertical-align:top;">:</td><td><div>False</div></td></tr><tr><td style="font-weight:bold;vertical-align:top;">gluon_parent</td><td style="vertical-align:top;">:</td><td><div>C:\\Users\\lvr20\\PycharmProjects\\EasyCommerce\\web2py</div></td></tr><tr><td style="font-weight:bold;vertical-align:top;">is_jython</td><td style="vertical-align:top;">:</td><td><div>False</div></td></tr><tr><td style="font-weight:bold;vertical-align:top;">is_pypy</td><td style="vertical-align:top;">:</td><td><div>False</div></td></tr><tr><td style="font-weight:bold;vertical-align:top;">is_source</td><td style="vertical-align:top;">:</td><td><div>True</div></td></tr><tr><td style="font-weight:bold;vertical-align:top;">local_hosts</td><td style="vertical-align:top;">:</td><td><div><table><tr><td><div>fe80::30ed:f604:3921:79ba%17</div></td></tr><tr><td><div>DESKTOP-UIDEION.ucsc.edu</div></td></tr><tr><td><div>::ffff:127.0.0.1</div></td></tr><tr><td><div>::1</div></td></tr><tr><td><div>192.168.56.1</div></td></tr><tr><td><div>DESKTOP-UIDEION</div></td></tr><tr><td><div>169.233.207.182</div></td></tr><tr><td><div>127.0.0.1</div></td></tr><tr><td><div>fe80::7c0d:227e:59f9:8aa0%15</div></td></tr></table></div></td></tr><tr><td style="font-weight:bold;vertical-align:top;">web2py_version</td><td style="vertical-align:top;">:</td><td><div>2.14.6-stable+timestamp.2016.05.10.00.21.47</div></td></tr></table></div></td></tr><tr><td style="font-weight:bold;vertical-align:top;">is_https</td><td style="vertical-align:top;">:</td><td><div>False</div></td></tr><tr><td style="font-weight:bold;vertical-align:top;">is_local</td><td style="vertical-align:top;">:</td><td><div>True</div></td></tr><tr><td style="font-weight:bold;vertical-align:top;">is_restful</td><td style="vertical-align:top;">:</td><td><div>False</div></td></tr><tr><td style="font-weight:bold;vertical-align:top;">is_scheduler</td><td style="vertical-align:top;">:</td><td><div>False</div></td></tr><tr><td style="font-weight:bold;vertical-align:top;">is_shell</td><td style="vertical-align:top;">:</td><td><div>False</div></td></tr><tr><td style="font-weight:bold;vertical-align:top;">now</td><td style="vertical-align:top;">:</td><td><div>datetime.datetime(2017, 3, 10, 10, 24, 38, 238000)</div></td></tr><tr><td style="font-weight:bold;vertical-align:top;">raw_args</td><td style="vertical-align:top;">:</td><td><div></div></td></tr><tr><td style="font-weight:bold;vertical-align:top;">raw_extension</td><td style="vertical-align:top;">:</td><td><div>None</div></td></tr><tr><td style="font-weight:bold;vertical-align:top;">url</td><td style="vertical-align:top;">:</td><td><div>/EasyCommerce/default/vendor_add</div></td></tr><tr><td style="font-weight:bold;vertical-align:top;">utcnow</td><td style="vertical-align:top;">:</td><td><div>datetime.datetime(2017, 3, 10, 18, 24, 38, 238000)</div></td></tr><tr><td style="font-weight:bold;vertical-align:top;">wsgi</td><td style="vertical-align:top;">:</td><td><div>&lt;gluon.main.LazyWSGI object at 0x0AE96EF0&gt;</div></td></tr></table></div>'
tRp58
sS'frames'
p59
(lp60
(dp61
S'file'
p62
S'C:\\Users\\lvr20\\PycharmProjects\\EasyCommerce\\web2py\\gluon\\restricted.py'
p63
sS'dump'
p64
(dp65
S'environment'
p66
S"{'A': <class 'gluon.html.A'>, 'ANY_OF': <class 'gluon.validators.ANY_OF'>, 'ASSIGNJS': <function ASSIGNJS>, 'Auth': <class 'gluon.tools.Auth'>, 'B': <class 'gluon.html.B'>, 'BEAUTIFY': <class 'gluon.html.BEAUTIFY'>, 'BODY': <class 'gluon.html.BODY'>, 'BR': <class 'gluon.html.BR'>, 'BUTTON': <class 'gluon.html.BUTTON'>, 'CAT': <class 'gluon.html.CAT'>, ...}"
p67
sS'ccode'
p68
S'<code object <module> at 0AAF2968, file "C:\\User...\\applications\\EasyCommerce\\models\\db.py", line 3>'
p69
ssS'lnum'
p70
I227
sS'lines'
p71
(dp72
I224
S'            ccode = code'
p73
sI225
S'        else:'
p74
sI226
S'            ccode = compile2(code, layer)'
p75
sI227
S'        exec ccode in environment'
p76
sI228
S'    except HTTP:'
p77
sI229
S'        raise'
p78
sI230
S'    except RestrictedError:'
p79
sI231
S'        # do not encapsulate (obfuscate) the original RestrictedError'
p80
sI222
S'    try:'
p81
sI223
S'        if isinstance(code, types.CodeType):'
p82
ssS'call'
p83
S"(code='# -*- coding: utf-8 -*-\\n#DAL Constructor\\ndb = DA...es(username=False,signature=False,migrate =False)', environment={'A': <class 'gluon.html.A'>, 'ANY_OF': <class 'gluon.validators.ANY_OF'>, 'ASSIGNJS': <function ASSIGNJS>, 'Auth': <class 'gluon.tools.Auth'>, 'B': <class 'gluon.html.B'>, 'BEAUTIFY': <class 'gluon.html.BEAUTIFY'>, 'BODY': <class 'gluon.html.BODY'>, 'BR': <class 'gluon.html.BR'>, 'BUTTON': <class 'gluon.html.BUTTON'>, 'CAT': <class 'gluon.html.CAT'>, ...}, layer=r'C:\\Users\\lvr20\\PycharmProjects\\EasyCommerce\\web2py\\applications\\EasyCommerce\\models\\db.py')"
p84
sS'func'
p85
S'restricted'
p86
sa(dp87
g62
S'C:\\Users\\lvr20\\PycharmProjects\\EasyCommerce\\web2py\\applications\\EasyCommerce\\models\\db.py'
p88
sg64
(dp89
S'db.vendor_.date.requires.readable'
p90
S'undefined'
p91
sS'db.vendor_.date'
p92
S'<pydal.objects.Field object>'
p93
sS'builtinFalse'
p94
S'False'
p95
sS'db'
p96
S'<DAL uri="sqlite://storage.sqlite">'
p97
sS'db.vendor_.date.requires'
p98
S'[<gluon.validators.IS_EMPTY_OR object>]'
p99
sS'db.vendor_'
p100
S'<Table vendor_ (id, name, vendor_id, email, phone_num, business_name, address, date)>'
p101
ssg70
I81
sg71
(dp102
I76
S"db.vendor_.phone_num.requires = IS_MATCH('((\\(\\d{3}\\) ?)|(\\d{3}-))?\\d{3}-\\d{4}',"
p103
sI77
S"                            error_message ='not a valid phone number.')"
p104
sI78
S'db.vendor_.address.requires = IS_NOT_EMPTY()'
p105
sI79
S'db.vendor_.vendor_id.requires.writable = False'
p106
sI80
S'db.vendor_.vendor_id.requires.readable = False'
p107
sI81
S'db.vendor_.date.requires.readable = False'
p108
sI82
S''
sI83
S'#Validations for User ---------------------------'
p109
sI84
S'db.user_.name.requires = IS_NOT_IN_DB(db, db.user_.name)'
p110
sI85
S'db.user_.email.requires = IS_EMAIL()'
p111
ssg83
S'()'
p112
sg85
S'<module>'
p113
sasS'pyver'
p114
S'Python 2.7: C:\\Python27\\python.exe (prefix: C:\\Python27)'
p115
sS'session'
p116
g57
(S'sX\x08\x00\x00<div><table><tr><td style="font-weight:bold;vertical-align:top;">auth</td><td style="vertical-align:top;">:</td><td><div><table><tr><td style="font-weight:bold;vertical-align:top;">expiration</td><td style="vertical-align:top;">:</td><td><div>3600</div></td></tr><tr><td style="font-weight:bold;vertical-align:top;">hmac_key</td><td style="vertical-align:top;">:</td><td><div>f7eeebc9-b43c-4f8d-bd79-ef32095e1ffc</div></td></tr><tr><td style="font-weight:bold;vertical-align:top;">last_visit</td><td style="vertical-align:top;">:</td><td><div>datetime.datetime(2017, 3, 10, 10, 24, 38, 238000)</div></td></tr><tr><td style="font-weight:bold;vertical-align:top;">user</td><td style="vertical-align:top;">:</td><td><div><table><tr><td style="font-weight:bold;vertical-align:top;">email</td><td style="vertical-align:top;">:</td><td><div>m@e.com</div></td></tr><tr><td style="font-weight:bold;vertical-align:top;">first_name</td><td style="vertical-align:top;">:</td><td><div>Paula</div></td></tr><tr><td style="font-weight:bold;vertical-align:top;">id</td><td style="vertical-align:top;">:</td><td><div>4L</div></td></tr><tr><td style="font-weight:bold;vertical-align:top;">last_name</td><td style="vertical-align:top;">:</td><td><div>Espiritu</div></td></tr><tr><td style="font-weight:bold;vertical-align:top;">registration_id</td><td style="vertical-align:top;">:</td><td><div></div></td></tr><tr><td style="font-weight:bold;vertical-align:top;">registration_key</td><td style="vertical-align:top;">:</td><td><div></div></td></tr><tr><td style="font-weight:bold;vertical-align:top;">reset_password_key</td><td style="vertical-align:top;">:</td><td><div></div></td></tr></table></div></td></tr><tr><td style="font-weight:bold;vertical-align:top;">user_groups</td><td style="vertical-align:top;">:</td><td><div><table><tr><td style="font-weight:bold;vertical-align:top;">4</td><td style="vertical-align:top;">:</td><td><div>user_4</div></td></tr></table></div></td></tr></table></div></td></tr><tr><td style="font-weight:bold;vertical-align:top;">flash</td><td style="vertical-align:top;">:</td><td><div>None</div></td></tr></table></div>'
tRp117
sS'etype'
p118
S"<type 'exceptions.AttributeError'>"
p119
sS'date'
p120
S'Fri Mar 10 10:24:38 2017'
p121
sS'response'
p122
g57
(S's\xbd\x17\x00\x00<div><table><tr><td style="font-weight:bold;vertical-align:top;">body</td><td style="vertical-align:top;">:</td><td><div>&lt;cStringIO.StringO object at 0x0B1BF800&gt;</div></td></tr><tr><td style="font-weight:bold;vertical-align:top;">cookies</td><td style="vertical-align:top;">:</td><td><div><table><tr><td style="font-weight:bold;vertical-align:top;">session_id_easycommerce</td><td style="vertical-align:top;">:</td><td><div>127.0.0.1-9fa2134a-ae62-456f-89c6-10277efdaba3<table><tr><td style="font-weight:bold;vertical-align:top;">comment</td><td style="vertical-align:top;">:</td><td><div></div></td></tr><tr><td style="font-weight:bold;vertical-align:top;">domain</td><td style="vertical-align:top;">:</td><td><div></div></td></tr><tr><td style="font-weight:bold;vertical-align:top;">expires</td><td style="vertical-align:top;">:</td><td><div></div></td></tr><tr><td style="font-weight:bold;vertical-align:top;">httponly</td><td style="vertical-align:top;">:</td><td><div></div></td></tr><tr><td style="font-weight:bold;vertical-align:top;">max-age</td><td style="vertical-align:top;">:</td><td><div></div></td></tr><tr><td style="font-weight:bold;vertical-align:top;">path</td><td style="vertical-align:top;">:</td><td><div>/</div></td></tr><tr><td style="font-weight:bold;vertical-align:top;">secure</td><td style="vertical-align:top;">:</td><td><div></div></td></tr><tr><td style="font-weight:bold;vertical-align:top;">version</td><td style="vertical-align:top;">:</td><td><div></div></td></tr></table></div></td></tr></table></div></td></tr><tr><td style="font-weight:bold;vertical-align:top;">delimiters</td><td style="vertical-align:top;">:</td><td><div><table><tr><td><div>{{</div></td></tr><tr><td><div>}}</div></td></tr></table></div></td></tr><tr><td style="font-weight:bold;vertical-align:top;">files</td><td style="vertical-align:top;">:</td><td><div><table></table></div></td></tr><tr><td style="font-weight:bold;vertical-align:top;">flash</td><td style="vertical-align:top;">:</td><td><div></div></td></tr><tr><td style="font-weight:bold;vertical-align:top;">form_label_separator</td><td style="vertical-align:top;">:</td><td><div>: </div></td></tr><tr><td style="font-weight:bold;vertical-align:top;">formstyle</td><td style="vertical-align:top;">:</td><td><div>table3cols</div></td></tr><tr><td style="font-weight:bold;vertical-align:top;">generic_patterns</td><td style="vertical-align:top;">:</td><td><div><table><tr><td><div>*</div></td></tr></table></div></td></tr><tr><td style="font-weight:bold;vertical-align:top;">headers</td><td style="vertical-align:top;">:</td><td><div><table><tr><td style="font-weight:bold;vertical-align:top;">X-Powered-By</td><td style="vertical-align:top;">:</td><td><div>web2py</div></td></tr></table></div></td></tr><tr><td style="font-weight:bold;vertical-align:top;">menu</td><td style="vertical-align:top;">:</td><td><div><table></table></div></td></tr><tr><td style="font-weight:bold;vertical-align:top;">meta</td><td style="vertical-align:top;">:</td><td><div><table></table></div></td></tr><tr><td style="font-weight:bold;vertical-align:top;">models_to_run</td><td style="vertical-align:top;">:</td><td><div><table><tr><td><div>^\\w+\\.py$</div></td></tr><tr><td><div>^default/\\w+\\.py$</div></td></tr><tr><td><div>^default/vendor_add/\\w+\\.py$</div></td></tr></table></div></td></tr><tr><td style="font-weight:bold;vertical-align:top;">postprocessing</td><td style="vertical-align:top;">:</td><td><div><table></table></div></td></tr><tr><td style="font-weight:bold;vertical-align:top;">session_client</td><td style="vertical-align:top;">:</td><td><div>127.0.0.1</div></td></tr><tr><td style="font-weight:bold;vertical-align:top;">session_cookie_compression_level</td><td style="vertical-align:top;">:</td><td><div>None</div></td></tr><tr><td style="font-weight:bold;vertical-align:top;">session_cookie_expires</td><td style="vertical-align:top;">:</td><td><div>None</div></td></tr><tr><td style="font-weight:bold;vertical-align:top;">session_data_name</td><td style="vertical-align:top;">:</td><td><div>session_data_easycommerce</div></td></tr><tr><td style="font-weight:bold;vertical-align:top;">session_file</td><td style="vertical-align:top;">:</td><td><div>&lt;open file &#x27;C:\\Users\\lvr20\\PycharmProjects\\EasyCommerce\\web2py\\applications\\EasyCommerce\\sessions\\160\\11c\\127.0.0.1-9fa2134a-ae62-456f-89c6-10277efdaba3&#x27;, mode &#x27;rb+&#x27; at 0x0AB78EE8&gt;</div></td></tr><tr><td style="font-weight:bold;vertical-align:top;">session_filename</td><td style="vertical-align:top;">:</td><td><div>C:\\Users\\lvr20\\PycharmProjects\\EasyCommerce\\web2py\\applications\\EasyCommerce\\sessions\\127.0.0.1-9fa2134a-ae62-456f-89c6-10277efdaba3</div></td></tr><tr><td style="font-weight:bold;vertical-align:top;">session_hash</td><td style="vertical-align:top;">:</td><td><div>46a011257fd4d93efb93b640956e9cf9</div></td></tr><tr><td style="font-weight:bold;vertical-align:top;">session_id</td><td style="vertical-align:top;">:</td><td><div>127.0.0.1-9fa2134a-ae62-456f-89c6-10277efdaba3</div></td></tr><tr><td style="font-weight:bold;vertical-align:top;">session_id_name</td><td style="vertical-align:top;">:</td><td><div>session_id_easycommerce</div></td></tr><tr><td style="font-weight:bold;vertical-align:top;">session_locked</td><td style="vertical-align:top;">:</td><td><div>True</div></td></tr><tr><td style="font-weight:bold;vertical-align:top;">session_masterapp</td><td style="vertical-align:top;">:</td><td><div>EasyCommerce</div></td></tr><tr><td style="font-weight:bold;vertical-align:top;">session_new</td><td style="vertical-align:top;">:</td><td><div>False</div></td></tr><tr><td style="font-weight:bold;vertical-align:top;">session_storage_type</td><td style="vertical-align:top;">:</td><td><div>file</div></td></tr><tr><td style="font-weight:bold;vertical-align:top;">status</td><td style="vertical-align:top;">:</td><td><div>200</div></td></tr><tr><td style="font-weight:bold;vertical-align:top;">view</td><td style="vertical-align:top;">:</td><td><div>default/vendor_add.html</div></td></tr></table></div>'
tRp123
sS'locals'
p124
(dp125
S'OBJECT'
p126
S"<class 'gluon.html.OBJECT'>"
p127
sS'datetime'
p128
S"<module 'datetime' (built-in)>"
p129
sg116
S"<Storage {'flash': None, 'auth': <Storage {'hmac...ature=66fe91726f1cbafa2ec6f631b3228f7f726ae43b'}>"
p130
sS'LINK'
p131
S"<class 'gluon.html.LINK'>"
p132
sS'BR'
p133
S"<class 'gluon.html.BR'>"
p134
sS'local_import'
p135
S'<function <lambda>>'
p136
sS'OPTGROUP'
p137
S"<class 'gluon.html.OPTGROUP'>"
p138
sS'__package__'
p139
S'None'
p140
sS'PRE'
p141
S"<class 'gluon.html.PRE'>"
p142
sS'IS_INT_IN_RANGE'
p143
S"<class 'gluon.validators.IS_INT_IN_RANGE'>"
p144
sS'IS_LOWER'
p145
S"<class 'gluon.validators.IS_LOWER'>"
p146
sS'IS_STRONG'
p147
S"<class 'gluon.validators.IS_STRONG'>"
p148
sS'cache'
p149
S'<gluon.cache.Cache object>'
p150
sS'IS_IN_DB'
p151
S"<class 'gluon.validators.IS_IN_DB'>"
p152
sS'TAG'
p153
S'<gluon.html.__TAG__ object>'
p154
sS'SQLField'
p155
S"<class 'pydal.objects.Field'>"
p156
sS'BODY'
p157
S"<class 'gluon.html.BODY'>"
p158
sS'IS_DATE_IN_RANGE'
p159
S"<class 'gluon.validators.IS_DATE_IN_RANGE'>"
p160
sS'TH'
p161
S"<class 'gluon.html.TH'>"
p162
sS'URL'
p163
S'<function URL>'
p164
sS'__file__'
p165
S"r'C:\\Users\\lvr20\\PycharmProjects\\EasyCommerce\\web2py\\applications\\EasyCommerce\\models\\db.py'"
p166
sS'db'
p167
S'<DAL uri="sqlite://storage.sqlite">'
p168
sS'auth'
p169
S'<gluon.tools.Auth object>'
p170
sS'P'
S"<class 'gluon.html.P'>"
p171
sS'TFOOT'
p172
S"<class 'gluon.html.TFOOT'>"
p173
sS'XHTML'
p174
S"<class 'gluon.html.XHTML'>"
p175
sS'SQLDB'
p176
S"<class 'pydal.base.DAL'>"
p177
sS'ON'
p178
S'True'
p179
sS'OL'
p180
S"<class 'gluon.html.OL'>"
p181
sS'TEXTAREA'
p182
S"<class 'gluon.html.TEXTAREA'>"
p183
sS'MENU'
p184
S"<class 'gluon.html.MENU'>"
p185
sS'LOAD'
p186
S'<function LOAD>'
p187
sS'CODE'
p188
S"<class 'gluon.html.CODE'>"
p189
sS'HTTP'
p190
S"<class 'gluon.http.HTTP'>"
p191
sS'HR'
p192
S"<class 'gluon.html.HR'>"
p193
sS'IS_DATETIME'
p194
S"<class 'gluon.validators.IS_DATETIME'>"
p195
sS'HEAD'
p196
S"<class 'gluon.html.HEAD'>"
p197
sS'LABEL'
p198
S"<class 'gluon.html.LABEL'>"
p199
sS'CLEANUP'
p200
S"<class 'gluon.validators.CLEANUP'>"
p201
sS'SELECT'
p202
S"<class 'gluon.html.SELECT'>"
p203
sS'CENTER'
p204
S"<class 'gluon.html.CENTER'>"
p205
sS'Auth'
p206
S"<class 'gluon.tools.Auth'>"
p207
sS'__builtins__'
p208
S"{'ArithmeticError': <type 'exceptions.ArithmeticError'>, 'AssertionError': <type 'exceptions.AssertionError'>, 'AttributeError': <type 'exceptions.AttributeError'>, 'BaseException': <type 'exceptions.BaseException'>, 'BufferError': <type 'exceptions.BufferError'>, 'BytesWarning': <type 'exceptions.BytesWarning'>, 'DeprecationWarning': <type 'exceptions.DeprecationWarning'>, 'EOFError': <type 'exceptions.EOFError'>, 'Ellipsis': Ellipsis, 'EnvironmentError': <type 'exceptions.EnvironmentError'>, ...}"
p209
sS'HTML'
p210
S"<class 'gluon.html.HTML'>"
p211
sS'SQLFORM'
p212
S"<class 'gluon.sqlhtml.SQLFORM'>"
p213
sS'EM'
p214
S"<class 'gluon.html.EM'>"
p215
sS'redirect'
p216
S'<function redirect>'
p217
sS'FIELDSET'
p218
S"<class 'gluon.html.FIELDSET'>"
p219
sS'IS_EQUAL_TO'
p220
S"<class 'gluon.validators.IS_EQUAL_TO'>"
p221
sS'embed64'
p222
S'<function embed64>'
p223
sS'IS_LIST_OF'
p224
S"<class 'gluon.validators.IS_LIST_OF'>"
p225
sS'__name__'
p226
S"'__restricted__'"
p227
sS'EMBED'
p228
S"<class 'gluon.html.EMBED'>"
p229
sS'FORM'
p230
S"<class 'gluon.html.FORM'>"
p231
sS'Item'
p232
S'<Table item (id, seller, date_added, item_name, ...tion, image, thumbnail, price, status, category)>'
p233
sS'H2'
p234
S"<class 'gluon.html.H2'>"
p235
sS'H3'
p236
S"<class 'gluon.html.H3'>"
p237
sS'BUTTON'
p238
S"<class 'gluon.html.BUTTON'>"
p239
sS'H1'
p240
S"<class 'gluon.html.H1'>"
p241
sS'H6'
p242
S"<class 'gluon.html.H6'>"
p243
sS'H4'
p244
S"<class 'gluon.html.H4'>"
p245
sS'H5'
p246
S"<class 'gluon.html.H5'>"
p247
sS'UL'
p248
S"<class 'gluon.html.UL'>"
p249
sS'IS_UPPER'
p250
S"<class 'gluon.validators.IS_UPPER'>"
p251
sS'xmlescape'
p252
S'<function xmlescape>'
p253
sS'IS_TIME'
p254
S"<class 'gluon.validators.IS_TIME'>"
p255
sS'OPTION'
p256
S"<class 'gluon.html.OPTION'>"
p257
sS'TITLE'
p258
S"<class 'gluon.html.TITLE'>"
p259
sS'CRYPT'
p260
S"<class 'gluon.validators.CRYPT'>"
p261
sS'IS_EMPTY_OR'
p262
S"<class 'gluon.validators.IS_EMPTY_OR'>"
p263
sS'MARKMIN'
p264
S"<class 'gluon.html.MARKMIN'>"
p265
sS'INPUT'
p266
S"<class 'gluon.html.INPUT'>"
p267
sS'STRONG'
p268
S"<class 'gluon.html.STRONG'>"
p269
sS'COL'
p270
S"<class 'gluon.html.COL'>"
p271
sS'SCRIPT'
p272
S"<class 'gluon.html.SCRIPT'>"
p273
sS'TABLE'
p274
S"<class 'gluon.html.TABLE'>"
p275
sS'IS_IPV4'
p276
S"<class 'gluon.validators.IS_IPV4'>"
p277
sS'IS_LENGTH'
p278
S"<class 'gluon.validators.IS_LENGTH'>"
p279
sS'IS_IPV6'
p280
S"<class 'gluon.validators.IS_IPV6'>"
p281
sS'XML'
p282
S"<class 'gluon.html.XML'>"
p283
sS'B'
S"<class 'gluon.html.B'>"
p284
sS'IMG'
p285
S"<class 'gluon.html.IMG'>"
p286
sS'SQLTABLE'
p287
S"<class 'gluon.sqlhtml.SQLTABLE'>"
p288
sS'IS_MATCH'
p289
S"<class 'gluon.validators.IS_MATCH'>"
p290
sS'IS_ALPHANUMERIC'
p291
S"<class 'gluon.validators.IS_ALPHANUMERIC'>"
p292
sS'SPAN'
p293
S"<class 'gluon.html.SPAN'>"
p294
sS'IS_JSON'
p295
S"<class 'gluon.validators.IS_JSON'>"
p296
sS'IS_IPADDRESS'
p297
S"<class 'gluon.validators.IS_IPADDRESS'>"
p298
sS'IS_SLUG'
p299
S"<class 'gluon.validators.IS_SLUG'>"
p300
sS'BEAUTIFY'
p301
S"<class 'gluon.html.BEAUTIFY'>"
p302
sS'META'
p303
S"<class 'gluon.html.META'>"
p304
sS'IS_DATE'
p305
S"<class 'gluon.validators.IS_DATE'>"
p306
sS'IS_EMAIL'
p307
S"<class 'gluon.validators.IS_EMAIL'>"
p308
sS'IS_NOT_EMPTY'
p309
S"<class 'gluon.validators.IS_NOT_EMPTY'>"
p310
sg56
S"<Storage {'_vars': None, 'function': 'vendor_add...Commerce\\\\web2py\\\\applications\\\\EasyCommerce\\\\'}>"
p311
sS'TBODY'
p312
S"<class 'gluon.html.TBODY'>"
p313
sS'CAT'
p314
S"<class 'gluon.html.CAT'>"
p315
sS'Field'
p316
S"<class 'pydal.objects.Field'>"
p317
sS'IS_LIST_OF_EMAILS'
p318
S"<class 'gluon.validators.IS_LIST_OF_EMAILS'>"
p319
sS'DIV'
p320
S"<class 'gluon.html.DIV'>"
p321
sS'LEGEND'
p322
S"<class 'gluon.html.LEGEND'>"
p323
sS'COLGROUP'
p324
S"<class 'gluon.html.COLGROUP'>"
p325
sS'DAL'
p326
S"<class 'pydal.base.DAL'>"
p327
sS'ASSIGNJS'
p328
S'<function ASSIGNJS>'
p329
sS'TR'
p330
S"<class 'gluon.html.TR'>"
p331
sS'LI'
p332
S"<class 'gluon.html.LI'>"
p333
sS'IFRAME'
p334
S"<class 'gluon.html.IFRAME'>"
p335
sS'TD'
p336
S"<class 'gluon.html.TD'>"
p337
sS'IS_URL'
p338
S"<class 'gluon.validators.IS_URL'>"
p339
sS'A'
S"<class 'gluon.html.A'>"
p340
sS'STYLE'
p341
S"<class 'gluon.html.STYLE'>"
p342
sS'IS_DATETIME_IN_RANGE'
p343
S"<class 'gluon.validators.IS_DATETIME_IN_RANGE'>"
p344
sS'IS_IMAGE'
p345
S"<class 'gluon.validators.IS_IMAGE'>"
p346
sS'I'
S"<class 'gluon.html.I'>"
p347
sS'IS_NOT_IN_DB'
p348
S"<class 'gluon.validators.IS_NOT_IN_DB'>"
p349
sg122
S"<Storage {'body': <cStringIO.StringO object at 0... 0x0A3B5030>, 'view': 'default/vendor_add.html'}>"
p350
sS'THEAD'
p351
S"<class 'gluon.html.THEAD'>"
p352
sS'ANY_OF'
p353
S"<class 'gluon.validators.ANY_OF'>"
p354
sS'IS_NULL_OR'
p355
S"<class 'gluon.validators.IS_EMPTY_OR'>"
p356
sS'IS_FLOAT_IN_RANGE'
p357
S"<class 'gluon.validators.IS_FLOAT_IN_RANGE'>"
p358
sS'IS_EXPR'
p359
S"<class 'gluon.validators.IS_EXPR'>"
p360
sS'IS_IN_SET'
p361
S"<class 'gluon.validators.IS_IN_SET'>"
p362
sS'IS_UPLOAD_FILENAME'
p363
S"<class 'gluon.validators.IS_UPLOAD_FILENAME'>"
p364
sS'IS_DECIMAL_IN_RANGE'
p365
S"<class 'gluon.validators.IS_DECIMAL_IN_RANGE'>"
p366
sS'TT'
p367
S"<class 'gluon.html.TT'>"
p368
sS'T'
S'<gluon.languages.translator object>'
p369
sssS'traceback'
p370
S'Traceback (most recent call last):\n  File "C:\\Users\\lvr20\\PycharmProjects\\EasyCommerce\\web2py\\gluon\\restricted.py", line 227, in restricted\n    exec ccode in environment\n  File "C:\\Users\\lvr20\\PycharmProjects\\EasyCommerce\\web2py\\applications\\EasyCommerce\\models\\db.py", line 81, in <module>\n    db.vendor_.date.requires.readable = False\nAttributeError: \'list\' object has no attribute \'readable\'\n'
p371
s.